
EMG_AMS.elf:     file format elf32-avr

Sections:
Idx Name          Size      VMA       LMA       File off  Algn
  0 .data         0000003a  00800200  00004178  0000420c  2**0
                  CONTENTS, ALLOC, LOAD, DATA
  1 .text         00004178  00000000  00000000  00000094  2**1
                  CONTENTS, ALLOC, LOAD, READONLY, CODE
  2 .bss          0000083c  0080023a  0080023a  00004246  2**0
                  ALLOC
  3 .comment      0000005c  00000000  00000000  00004246  2**0
                  CONTENTS, READONLY
  4 .note.gnu.avr.deviceinfo 00000040  00000000  00000000  000042a4  2**2
                  CONTENTS, READONLY
  5 .debug_aranges 00000408  00000000  00000000  000042e4  2**0
                  CONTENTS, READONLY, DEBUGGING
  6 .debug_info   000073a4  00000000  00000000  000046ec  2**0
                  CONTENTS, READONLY, DEBUGGING
  7 .debug_abbrev 0000181e  00000000  00000000  0000ba90  2**0
                  CONTENTS, READONLY, DEBUGGING
  8 .debug_line   00003d34  00000000  00000000  0000d2ae  2**0
                  CONTENTS, READONLY, DEBUGGING
  9 .debug_frame  0000134c  00000000  00000000  00010fe4  2**2
                  CONTENTS, READONLY, DEBUGGING
 10 .debug_str    00001040  00000000  00000000  00012330  2**0
                  CONTENTS, READONLY, DEBUGGING
 11 .debug_loc    0000733f  00000000  00000000  00013370  2**0
                  CONTENTS, READONLY, DEBUGGING
 12 .debug_ranges 00000448  00000000  00000000  0001a6af  2**0
                  CONTENTS, READONLY, DEBUGGING

Disassembly of section .text:

00000000 <__vectors>:
       0:	71 c0       	rjmp	.+226    	; 0xe4 <__ctors_end>
       2:	00 00       	nop
       4:	90 c0       	rjmp	.+288    	; 0x126 <__bad_interrupt>
       6:	00 00       	nop
       8:	8e c0       	rjmp	.+284    	; 0x126 <__bad_interrupt>
       a:	00 00       	nop
       c:	8c c0       	rjmp	.+280    	; 0x126 <__bad_interrupt>
       e:	00 00       	nop
      10:	8a c0       	rjmp	.+276    	; 0x126 <__bad_interrupt>
      12:	00 00       	nop
      14:	0c 94 c0 18 	jmp	0x3180	; 0x3180 <__vector_5>
      18:	86 c0       	rjmp	.+268    	; 0x126 <__bad_interrupt>
      1a:	00 00       	nop
      1c:	84 c0       	rjmp	.+264    	; 0x126 <__bad_interrupt>
      1e:	00 00       	nop
      20:	82 c0       	rjmp	.+260    	; 0x126 <__bad_interrupt>
      22:	00 00       	nop
      24:	80 c0       	rjmp	.+256    	; 0x126 <__bad_interrupt>
      26:	00 00       	nop
      28:	7e c0       	rjmp	.+252    	; 0x126 <__bad_interrupt>
      2a:	00 00       	nop
      2c:	7c c0       	rjmp	.+248    	; 0x126 <__bad_interrupt>
      2e:	00 00       	nop
      30:	7a c0       	rjmp	.+244    	; 0x126 <__bad_interrupt>
      32:	00 00       	nop
      34:	78 c0       	rjmp	.+240    	; 0x126 <__bad_interrupt>
      36:	00 00       	nop
      38:	76 c0       	rjmp	.+236    	; 0x126 <__bad_interrupt>
      3a:	00 00       	nop
      3c:	74 c0       	rjmp	.+232    	; 0x126 <__bad_interrupt>
      3e:	00 00       	nop
      40:	72 c0       	rjmp	.+228    	; 0x126 <__bad_interrupt>
      42:	00 00       	nop
      44:	0c 94 90 1a 	jmp	0x3520	; 0x3520 <__vector_17>
      48:	6e c0       	rjmp	.+220    	; 0x126 <__bad_interrupt>
      4a:	00 00       	nop
      4c:	6c c0       	rjmp	.+216    	; 0x126 <__bad_interrupt>
      4e:	00 00       	nop
      50:	6a c0       	rjmp	.+212    	; 0x126 <__bad_interrupt>
      52:	00 00       	nop
      54:	68 c0       	rjmp	.+208    	; 0x126 <__bad_interrupt>
      56:	00 00       	nop
      58:	66 c0       	rjmp	.+204    	; 0x126 <__bad_interrupt>
      5a:	00 00       	nop
      5c:	64 c0       	rjmp	.+200    	; 0x126 <__bad_interrupt>
      5e:	00 00       	nop
      60:	62 c0       	rjmp	.+196    	; 0x126 <__bad_interrupt>
      62:	00 00       	nop
      64:	60 c0       	rjmp	.+192    	; 0x126 <__bad_interrupt>
      66:	00 00       	nop
      68:	5e c0       	rjmp	.+188    	; 0x126 <__bad_interrupt>
      6a:	00 00       	nop
      6c:	5c c0       	rjmp	.+184    	; 0x126 <__bad_interrupt>
      6e:	00 00       	nop
      70:	5a c0       	rjmp	.+180    	; 0x126 <__bad_interrupt>
      72:	00 00       	nop
      74:	0c 94 39 1a 	jmp	0x3472	; 0x3472 <__vector_29>
      78:	56 c0       	rjmp	.+172    	; 0x126 <__bad_interrupt>
      7a:	00 00       	nop
      7c:	54 c0       	rjmp	.+168    	; 0x126 <__bad_interrupt>
      7e:	00 00       	nop
      80:	52 c0       	rjmp	.+164    	; 0x126 <__bad_interrupt>
      82:	00 00       	nop
      84:	50 c0       	rjmp	.+160    	; 0x126 <__bad_interrupt>
      86:	00 00       	nop
      88:	4e c0       	rjmp	.+156    	; 0x126 <__bad_interrupt>
      8a:	00 00       	nop
      8c:	4c c0       	rjmp	.+152    	; 0x126 <__bad_interrupt>
      8e:	00 00       	nop
      90:	4a c0       	rjmp	.+148    	; 0x126 <__bad_interrupt>
      92:	00 00       	nop
      94:	48 c0       	rjmp	.+144    	; 0x126 <__bad_interrupt>
      96:	00 00       	nop
      98:	46 c0       	rjmp	.+140    	; 0x126 <__bad_interrupt>
      9a:	00 00       	nop
      9c:	44 c0       	rjmp	.+136    	; 0x126 <__bad_interrupt>
      9e:	00 00       	nop
      a0:	42 c0       	rjmp	.+132    	; 0x126 <__bad_interrupt>
      a2:	00 00       	nop
      a4:	40 c0       	rjmp	.+128    	; 0x126 <__bad_interrupt>
      a6:	00 00       	nop
      a8:	3e c0       	rjmp	.+124    	; 0x126 <__bad_interrupt>
      aa:	00 00       	nop
      ac:	3c c0       	rjmp	.+120    	; 0x126 <__bad_interrupt>
      ae:	00 00       	nop
      b0:	3a c0       	rjmp	.+116    	; 0x126 <__bad_interrupt>
      b2:	00 00       	nop
      b4:	38 c0       	rjmp	.+112    	; 0x126 <__bad_interrupt>
      b6:	00 00       	nop
      b8:	36 c0       	rjmp	.+108    	; 0x126 <__bad_interrupt>
      ba:	00 00       	nop
      bc:	34 c0       	rjmp	.+104    	; 0x126 <__bad_interrupt>
      be:	00 00       	nop
      c0:	32 c0       	rjmp	.+100    	; 0x126 <__bad_interrupt>
      c2:	00 00       	nop
      c4:	30 c0       	rjmp	.+96     	; 0x126 <__bad_interrupt>
      c6:	00 00       	nop
      c8:	2e c0       	rjmp	.+92     	; 0x126 <__bad_interrupt>
      ca:	00 00       	nop
      cc:	2c c0       	rjmp	.+88     	; 0x126 <__bad_interrupt>
      ce:	00 00       	nop
      d0:	2a c0       	rjmp	.+84     	; 0x126 <__bad_interrupt>
      d2:	00 00       	nop
      d4:	28 c0       	rjmp	.+80     	; 0x126 <__bad_interrupt>
      d6:	00 00       	nop
      d8:	26 c0       	rjmp	.+76     	; 0x126 <__bad_interrupt>
      da:	00 00       	nop
      dc:	24 c0       	rjmp	.+72     	; 0x126 <__bad_interrupt>
      de:	00 00       	nop
      e0:	22 c0       	rjmp	.+68     	; 0x126 <__bad_interrupt>
	...

000000e4 <__ctors_end>:
      e4:	11 24       	eor	r1, r1
      e6:	1f be       	out	0x3f, r1	; 63
      e8:	cf ef       	ldi	r28, 0xFF	; 255
      ea:	d1 e2       	ldi	r29, 0x21	; 33
      ec:	de bf       	out	0x3e, r29	; 62
      ee:	cd bf       	out	0x3d, r28	; 61
      f0:	00 e0       	ldi	r16, 0x00	; 0
      f2:	0c bf       	out	0x3c, r16	; 60

000000f4 <__do_copy_data>:
      f4:	12 e0       	ldi	r17, 0x02	; 2
      f6:	a0 e0       	ldi	r26, 0x00	; 0
      f8:	b2 e0       	ldi	r27, 0x02	; 2
      fa:	e8 e7       	ldi	r30, 0x78	; 120
      fc:	f1 e4       	ldi	r31, 0x41	; 65
      fe:	00 e0       	ldi	r16, 0x00	; 0
     100:	0b bf       	out	0x3b, r16	; 59
     102:	02 c0       	rjmp	.+4      	; 0x108 <__do_copy_data+0x14>
     104:	07 90       	elpm	r0, Z+
     106:	0d 92       	st	X+, r0
     108:	aa 33       	cpi	r26, 0x3A	; 58
     10a:	b1 07       	cpc	r27, r17
     10c:	d9 f7       	brne	.-10     	; 0x104 <__do_copy_data+0x10>

0000010e <__do_clear_bss>:
     10e:	2a e0       	ldi	r18, 0x0A	; 10
     110:	aa e3       	ldi	r26, 0x3A	; 58
     112:	b2 e0       	ldi	r27, 0x02	; 2
     114:	01 c0       	rjmp	.+2      	; 0x118 <.do_clear_bss_start>

00000116 <.do_clear_bss_loop>:
     116:	1d 92       	st	X+, r1

00000118 <.do_clear_bss_start>:
     118:	a6 37       	cpi	r26, 0x76	; 118
     11a:	b2 07       	cpc	r27, r18
     11c:	e1 f7       	brne	.-8      	; 0x116 <.do_clear_bss_loop>
     11e:	0e 94 ee 1b 	call	0x37dc	; 0x37dc <main>
     122:	0c 94 ba 20 	jmp	0x4174	; 0x4174 <_exit>

00000126 <__bad_interrupt>:
     126:	6c cf       	rjmp	.-296    	; 0x0 <__vectors>

00000128 <ld_word>:
			}
			FREE_NAMBUF();
		}
	}
	LEAVE_FF(fs, res);
}
     128:	fc 01       	movw	r30, r24
     12a:	21 81       	ldd	r18, Z+1	; 0x01
     12c:	30 e0       	ldi	r19, 0x00	; 0
     12e:	32 2f       	mov	r19, r18
     130:	22 27       	eor	r18, r18
     132:	80 81       	ld	r24, Z
     134:	a9 01       	movw	r20, r18
     136:	48 2b       	or	r20, r24
     138:	ca 01       	movw	r24, r20
     13a:	08 95       	ret

0000013c <ld_dword>:
     13c:	fc 01       	movw	r30, r24
     13e:	63 81       	ldd	r22, Z+3	; 0x03
     140:	86 2f       	mov	r24, r22
     142:	90 e0       	ldi	r25, 0x00	; 0
     144:	a0 e0       	ldi	r26, 0x00	; 0
     146:	b0 e0       	ldi	r27, 0x00	; 0
     148:	ba 2f       	mov	r27, r26
     14a:	a9 2f       	mov	r26, r25
     14c:	98 2f       	mov	r25, r24
     14e:	88 27       	eor	r24, r24
     150:	22 81       	ldd	r18, Z+2	; 0x02
     152:	82 2b       	or	r24, r18
     154:	ba 2f       	mov	r27, r26
     156:	a9 2f       	mov	r26, r25
     158:	98 2f       	mov	r25, r24
     15a:	88 27       	eor	r24, r24
     15c:	21 81       	ldd	r18, Z+1	; 0x01
     15e:	82 2b       	or	r24, r18
     160:	ba 2f       	mov	r27, r26
     162:	a9 2f       	mov	r26, r25
     164:	98 2f       	mov	r25, r24
     166:	88 27       	eor	r24, r24
     168:	20 81       	ld	r18, Z
     16a:	bc 01       	movw	r22, r24
     16c:	cd 01       	movw	r24, r26
     16e:	62 2b       	or	r22, r18
     170:	08 95       	ret

00000172 <st_word>:
     172:	fc 01       	movw	r30, r24
     174:	60 83       	st	Z, r22
     176:	71 83       	std	Z+1, r23	; 0x01
     178:	08 95       	ret

0000017a <st_dword>:
     17a:	fc 01       	movw	r30, r24
     17c:	40 83       	st	Z, r20
     17e:	51 83       	std	Z+1, r21	; 0x01
     180:	62 83       	std	Z+2, r22	; 0x02
     182:	73 83       	std	Z+3, r23	; 0x03
     184:	08 95       	ret

00000186 <mem_cpy>:
     186:	dc 01       	movw	r26, r24
     188:	fb 01       	movw	r30, r22
     18a:	41 15       	cp	r20, r1
     18c:	51 05       	cpc	r21, r1
     18e:	49 f0       	breq	.+18     	; 0x1a2 <mem_cpy+0x1c>
     190:	80 81       	ld	r24, Z
     192:	8c 93       	st	X, r24
     194:	41 50       	subi	r20, 0x01	; 1
     196:	51 09       	sbc	r21, r1
     198:	11 96       	adiw	r26, 0x01	; 1
     19a:	31 96       	adiw	r30, 0x01	; 1
     19c:	41 15       	cp	r20, r1
     19e:	51 05       	cpc	r21, r1
     1a0:	b9 f7       	brne	.-18     	; 0x190 <mem_cpy+0xa>
     1a2:	08 95       	ret

000001a4 <mem_set>:
     1a4:	fc 01       	movw	r30, r24
     1a6:	60 83       	st	Z, r22
     1a8:	41 50       	subi	r20, 0x01	; 1
     1aa:	51 09       	sbc	r21, r1
     1ac:	31 96       	adiw	r30, 0x01	; 1
     1ae:	41 15       	cp	r20, r1
     1b0:	51 05       	cpc	r21, r1
     1b2:	c9 f7       	brne	.-14     	; 0x1a6 <mem_set+0x2>
     1b4:	08 95       	ret

000001b6 <mem_cmp>:
     1b6:	cf 93       	push	r28
     1b8:	df 93       	push	r29
     1ba:	dc 01       	movw	r26, r24
     1bc:	fb 01       	movw	r30, r22
     1be:	ed 01       	movw	r28, r26
     1c0:	21 96       	adiw	r28, 0x01	; 1
     1c2:	8c 91       	ld	r24, X
     1c4:	90 e0       	ldi	r25, 0x00	; 0
     1c6:	bf 01       	movw	r22, r30
     1c8:	6f 5f       	subi	r22, 0xFF	; 255
     1ca:	7f 4f       	sbci	r23, 0xFF	; 255
     1cc:	20 81       	ld	r18, Z
     1ce:	82 1b       	sub	r24, r18
     1d0:	91 09       	sbc	r25, r1
     1d2:	41 50       	subi	r20, 0x01	; 1
     1d4:	51 09       	sbc	r21, r1
     1d6:	21 f0       	breq	.+8      	; 0x1e0 <mem_cmp+0x2a>
     1d8:	de 01       	movw	r26, r28
     1da:	fb 01       	movw	r30, r22
     1dc:	00 97       	sbiw	r24, 0x00	; 0
     1de:	79 f3       	breq	.-34     	; 0x1be <mem_cmp+0x8>
     1e0:	df 91       	pop	r29
     1e2:	cf 91       	pop	r28
     1e4:	08 95       	ret

000001e6 <chk_chr>:
     1e6:	fc 01       	movw	r30, r24
     1e8:	01 c0       	rjmp	.+2      	; 0x1ec <chk_chr+0x6>
     1ea:	31 96       	adiw	r30, 0x01	; 1
     1ec:	80 81       	ld	r24, Z
     1ee:	88 23       	and	r24, r24
     1f0:	29 f0       	breq	.+10     	; 0x1fc <chk_chr+0x16>
     1f2:	28 2f       	mov	r18, r24
     1f4:	30 e0       	ldi	r19, 0x00	; 0
     1f6:	26 17       	cp	r18, r22
     1f8:	37 07       	cpc	r19, r23
     1fa:	b9 f7       	brne	.-18     	; 0x1ea <chk_chr+0x4>
     1fc:	90 e0       	ldi	r25, 0x00	; 0
     1fe:	08 95       	ret

00000200 <dbc_1st>:
     200:	81 38       	cpi	r24, 0x81	; 129
     202:	48 f0       	brcs	.+18     	; 0x216 <dbc_1st+0x16>
     204:	80 3a       	cpi	r24, 0xA0	; 160
     206:	50 f0       	brcs	.+20     	; 0x21c <dbc_1st+0x1c>
     208:	80 3e       	cpi	r24, 0xE0	; 224
     20a:	58 f0       	brcs	.+22     	; 0x222 <dbc_1st+0x22>
     20c:	8d 3f       	cpi	r24, 0xFD	; 253
     20e:	60 f0       	brcs	.+24     	; 0x228 <dbc_1st+0x28>
     210:	80 e0       	ldi	r24, 0x00	; 0
     212:	90 e0       	ldi	r25, 0x00	; 0
     214:	08 95       	ret
     216:	80 e0       	ldi	r24, 0x00	; 0
     218:	90 e0       	ldi	r25, 0x00	; 0
     21a:	08 95       	ret
     21c:	81 e0       	ldi	r24, 0x01	; 1
     21e:	90 e0       	ldi	r25, 0x00	; 0
     220:	08 95       	ret
     222:	80 e0       	ldi	r24, 0x00	; 0
     224:	90 e0       	ldi	r25, 0x00	; 0
     226:	08 95       	ret
     228:	81 e0       	ldi	r24, 0x01	; 1
     22a:	90 e0       	ldi	r25, 0x00	; 0
     22c:	08 95       	ret

0000022e <dbc_2nd>:
     22e:	80 34       	cpi	r24, 0x40	; 64
     230:	58 f0       	brcs	.+22     	; 0x248 <dbc_2nd+0x1a>
     232:	8f 37       	cpi	r24, 0x7F	; 127
     234:	60 f0       	brcs	.+24     	; 0x24e <dbc_2nd+0x20>
     236:	80 38       	cpi	r24, 0x80	; 128
     238:	10 f0       	brcs	.+4      	; 0x23e <dbc_2nd+0x10>
     23a:	8d 3f       	cpi	r24, 0xFD	; 253
     23c:	58 f0       	brcs	.+22     	; 0x254 <dbc_2nd+0x26>
     23e:	88 23       	and	r24, r24
     240:	61 f0       	breq	.+24     	; 0x25a <dbc_2nd+0x2c>
     242:	80 e0       	ldi	r24, 0x00	; 0
     244:	90 e0       	ldi	r25, 0x00	; 0
     246:	08 95       	ret
     248:	80 e0       	ldi	r24, 0x00	; 0
     24a:	90 e0       	ldi	r25, 0x00	; 0
     24c:	08 95       	ret
     24e:	81 e0       	ldi	r24, 0x01	; 1
     250:	90 e0       	ldi	r25, 0x00	; 0
     252:	08 95       	ret
     254:	81 e0       	ldi	r24, 0x01	; 1
     256:	90 e0       	ldi	r25, 0x00	; 0
     258:	08 95       	ret
     25a:	81 e0       	ldi	r24, 0x01	; 1
     25c:	90 e0       	ldi	r25, 0x00	; 0
     25e:	08 95       	ret

00000260 <clst2sect>:
     260:	cf 92       	push	r12
     262:	df 92       	push	r13
     264:	ef 92       	push	r14
     266:	ff 92       	push	r15
     268:	fc 01       	movw	r30, r24
     26a:	9a 01       	movw	r18, r20
     26c:	ab 01       	movw	r20, r22
     26e:	22 50       	subi	r18, 0x02	; 2
     270:	31 09       	sbc	r19, r1
     272:	41 09       	sbc	r20, r1
     274:	51 09       	sbc	r21, r1
     276:	c3 88       	ldd	r12, Z+19	; 0x13
     278:	d4 88       	ldd	r13, Z+20	; 0x14
     27a:	e5 88       	ldd	r14, Z+21	; 0x15
     27c:	f6 88       	ldd	r15, Z+22	; 0x16
     27e:	82 e0       	ldi	r24, 0x02	; 2
     280:	c8 1a       	sub	r12, r24
     282:	d1 08       	sbc	r13, r1
     284:	e1 08       	sbc	r14, r1
     286:	f1 08       	sbc	r15, r1
     288:	2c 15       	cp	r18, r12
     28a:	3d 05       	cpc	r19, r13
     28c:	4e 05       	cpc	r20, r14
     28e:	5f 05       	cpc	r21, r15
     290:	68 f4       	brcc	.+26     	; 0x2ac <clst2sect+0x4c>
     292:	c7 a0       	ldd	r12, Z+39	; 0x27
     294:	d0 a4       	ldd	r13, Z+40	; 0x28
     296:	e1 a4       	ldd	r14, Z+41	; 0x29
     298:	f2 a4       	ldd	r15, Z+42	; 0x2a
     29a:	a1 85       	ldd	r26, Z+9	; 0x09
     29c:	b2 85       	ldd	r27, Z+10	; 0x0a
     29e:	0e 94 a2 1d 	call	0x3b44	; 0x3b44 <__muluhisi3>
     2a2:	6c 0d       	add	r22, r12
     2a4:	7d 1d       	adc	r23, r13
     2a6:	8e 1d       	adc	r24, r14
     2a8:	9f 1d       	adc	r25, r15
     2aa:	03 c0       	rjmp	.+6      	; 0x2b2 <clst2sect+0x52>
     2ac:	60 e0       	ldi	r22, 0x00	; 0
     2ae:	70 e0       	ldi	r23, 0x00	; 0
     2b0:	cb 01       	movw	r24, r22
     2b2:	ff 90       	pop	r15
     2b4:	ef 90       	pop	r14
     2b6:	df 90       	pop	r13
     2b8:	cf 90       	pop	r12
     2ba:	08 95       	ret

000002bc <ld_clust>:
     2bc:	cf 92       	push	r12
     2be:	df 92       	push	r13
     2c0:	ef 92       	push	r14
     2c2:	ff 92       	push	r15
     2c4:	0f 93       	push	r16
     2c6:	1f 93       	push	r17
     2c8:	cf 93       	push	r28
     2ca:	df 93       	push	r29
     2cc:	8c 01       	movw	r16, r24
     2ce:	eb 01       	movw	r28, r22
     2d0:	cb 01       	movw	r24, r22
     2d2:	4a 96       	adiw	r24, 0x1a	; 26
     2d4:	29 df       	rcall	.-430    	; 0x128 <ld_word>
     2d6:	6c 01       	movw	r12, r24
     2d8:	e1 2c       	mov	r14, r1
     2da:	f1 2c       	mov	r15, r1
     2dc:	f8 01       	movw	r30, r16
     2de:	80 81       	ld	r24, Z
     2e0:	83 30       	cpi	r24, 0x03	; 3
     2e2:	61 f4       	brne	.+24     	; 0x2fc <ld_clust+0x40>
     2e4:	ce 01       	movw	r24, r28
     2e6:	44 96       	adiw	r24, 0x14	; 20
     2e8:	1f df       	rcall	.-450    	; 0x128 <ld_word>
     2ea:	a0 e0       	ldi	r26, 0x00	; 0
     2ec:	b0 e0       	ldi	r27, 0x00	; 0
     2ee:	dc 01       	movw	r26, r24
     2f0:	99 27       	eor	r25, r25
     2f2:	88 27       	eor	r24, r24
     2f4:	c8 2a       	or	r12, r24
     2f6:	d9 2a       	or	r13, r25
     2f8:	ea 2a       	or	r14, r26
     2fa:	fb 2a       	or	r15, r27
     2fc:	c7 01       	movw	r24, r14
     2fe:	b6 01       	movw	r22, r12
     300:	df 91       	pop	r29
     302:	cf 91       	pop	r28
     304:	1f 91       	pop	r17
     306:	0f 91       	pop	r16
     308:	ff 90       	pop	r15
     30a:	ef 90       	pop	r14
     30c:	df 90       	pop	r13
     30e:	cf 90       	pop	r12
     310:	08 95       	ret

00000312 <st_clust>:
     312:	cf 92       	push	r12
     314:	df 92       	push	r13
     316:	ef 92       	push	r14
     318:	ff 92       	push	r15
     31a:	0f 93       	push	r16
     31c:	1f 93       	push	r17
     31e:	cf 93       	push	r28
     320:	df 93       	push	r29
     322:	8c 01       	movw	r16, r24
     324:	eb 01       	movw	r28, r22
     326:	69 01       	movw	r12, r18
     328:	7a 01       	movw	r14, r20
     32a:	b9 01       	movw	r22, r18
     32c:	ce 01       	movw	r24, r28
     32e:	4a 96       	adiw	r24, 0x1a	; 26
     330:	20 df       	rcall	.-448    	; 0x172 <st_word>
     332:	f8 01       	movw	r30, r16
     334:	80 81       	ld	r24, Z
     336:	83 30       	cpi	r24, 0x03	; 3
     338:	31 f4       	brne	.+12     	; 0x346 <st_clust+0x34>
     33a:	b7 01       	movw	r22, r14
     33c:	88 27       	eor	r24, r24
     33e:	99 27       	eor	r25, r25
     340:	ce 01       	movw	r24, r28
     342:	44 96       	adiw	r24, 0x14	; 20
     344:	16 df       	rcall	.-468    	; 0x172 <st_word>
     346:	df 91       	pop	r29
     348:	cf 91       	pop	r28
     34a:	1f 91       	pop	r17
     34c:	0f 91       	pop	r16
     34e:	ff 90       	pop	r15
     350:	ef 90       	pop	r14
     352:	df 90       	pop	r13
     354:	cf 90       	pop	r12
     356:	08 95       	ret

00000358 <get_fileinfo>:
     358:	0f 93       	push	r16
     35a:	1f 93       	push	r17
     35c:	cf 93       	push	r28
     35e:	df 93       	push	r29
     360:	ec 01       	movw	r28, r24
     362:	fb 01       	movw	r30, r22
     364:	11 86       	std	Z+9, r1	; 0x09
     366:	8e 89       	ldd	r24, Y+22	; 0x16
     368:	9f 89       	ldd	r25, Y+23	; 0x17
     36a:	a8 8d       	ldd	r26, Y+24	; 0x18
     36c:	b9 8d       	ldd	r27, Y+25	; 0x19
     36e:	89 2b       	or	r24, r25
     370:	8a 2b       	or	r24, r26
     372:	8b 2b       	or	r24, r27
     374:	09 f4       	brne	.+2      	; 0x378 <get_fileinfo+0x20>
     376:	46 c0       	rjmp	.+140    	; 0x404 <__LOCK_REGION_LENGTH__+0x4>
     378:	e0 e0       	ldi	r30, 0x00	; 0
     37a:	f0 e0       	ldi	r31, 0x00	; 0
     37c:	20 e0       	ldi	r18, 0x00	; 0
     37e:	30 e0       	ldi	r19, 0x00	; 0
     380:	1e c0       	rjmp	.+60     	; 0x3be <get_fileinfo+0x66>
     382:	aa 8d       	ldd	r26, Y+26	; 0x1a
     384:	bb 8d       	ldd	r27, Y+27	; 0x1b
     386:	a9 01       	movw	r20, r18
     388:	4f 5f       	subi	r20, 0xFF	; 255
     38a:	5f 4f       	sbci	r21, 0xFF	; 255
     38c:	a2 0f       	add	r26, r18
     38e:	b3 1f       	adc	r27, r19
     390:	9c 91       	ld	r25, X
     392:	90 32       	cpi	r25, 0x20	; 32
     394:	99 f0       	breq	.+38     	; 0x3bc <get_fileinfo+0x64>
     396:	95 30       	cpi	r25, 0x05	; 5
     398:	09 f4       	brne	.+2      	; 0x39c <get_fileinfo+0x44>
     39a:	95 ee       	ldi	r25, 0xE5	; 229
     39c:	49 30       	cpi	r20, 0x09	; 9
     39e:	51 05       	cpc	r21, r1
     3a0:	39 f4       	brne	.+14     	; 0x3b0 <get_fileinfo+0x58>
     3a2:	db 01       	movw	r26, r22
     3a4:	ae 0f       	add	r26, r30
     3a6:	bf 1f       	adc	r27, r31
     3a8:	8e e2       	ldi	r24, 0x2E	; 46
     3aa:	19 96       	adiw	r26, 0x09	; 9
     3ac:	8c 93       	st	X, r24
     3ae:	31 96       	adiw	r30, 0x01	; 1
     3b0:	db 01       	movw	r26, r22
     3b2:	ae 0f       	add	r26, r30
     3b4:	bf 1f       	adc	r27, r31
     3b6:	19 96       	adiw	r26, 0x09	; 9
     3b8:	9c 93       	st	X, r25
     3ba:	31 96       	adiw	r30, 0x01	; 1
     3bc:	9a 01       	movw	r18, r20
     3be:	2b 30       	cpi	r18, 0x0B	; 11
     3c0:	31 05       	cpc	r19, r1
     3c2:	f8 f2       	brcs	.-66     	; 0x382 <get_fileinfo+0x2a>
     3c4:	8b 01       	movw	r16, r22
     3c6:	e6 0f       	add	r30, r22
     3c8:	f7 1f       	adc	r31, r23
     3ca:	11 86       	std	Z+9, r1	; 0x09
     3cc:	ea 8d       	ldd	r30, Y+26	; 0x1a
     3ce:	fb 8d       	ldd	r31, Y+27	; 0x1b
     3d0:	83 85       	ldd	r24, Z+11	; 0x0b
     3d2:	fb 01       	movw	r30, r22
     3d4:	80 87       	std	Z+8, r24	; 0x08
     3d6:	8a 8d       	ldd	r24, Y+26	; 0x1a
     3d8:	9b 8d       	ldd	r25, Y+27	; 0x1b
     3da:	4c 96       	adiw	r24, 0x1c	; 28
     3dc:	af de       	rcall	.-674    	; 0x13c <ld_dword>
     3de:	f8 01       	movw	r30, r16
     3e0:	60 83       	st	Z, r22
     3e2:	71 83       	std	Z+1, r23	; 0x01
     3e4:	82 83       	std	Z+2, r24	; 0x02
     3e6:	93 83       	std	Z+3, r25	; 0x03
     3e8:	8a 8d       	ldd	r24, Y+26	; 0x1a
     3ea:	9b 8d       	ldd	r25, Y+27	; 0x1b
     3ec:	46 96       	adiw	r24, 0x16	; 22
     3ee:	9c de       	rcall	.-712    	; 0x128 <ld_word>
     3f0:	f8 01       	movw	r30, r16
     3f2:	97 83       	std	Z+7, r25	; 0x07
     3f4:	86 83       	std	Z+6, r24	; 0x06
     3f6:	8a 8d       	ldd	r24, Y+26	; 0x1a
     3f8:	9b 8d       	ldd	r25, Y+27	; 0x1b
     3fa:	48 96       	adiw	r24, 0x18	; 24
     3fc:	95 de       	rcall	.-726    	; 0x128 <ld_word>
     3fe:	f8 01       	movw	r30, r16
     400:	95 83       	std	Z+5, r25	; 0x05
     402:	84 83       	std	Z+4, r24	; 0x04
     404:	df 91       	pop	r29
     406:	cf 91       	pop	r28
     408:	1f 91       	pop	r17
     40a:	0f 91       	pop	r16
     40c:	08 95       	ret

0000040e <create_name>:
     40e:	3f 92       	push	r3
     410:	4f 92       	push	r4
     412:	5f 92       	push	r5
     414:	6f 92       	push	r6
     416:	7f 92       	push	r7
     418:	8f 92       	push	r8
     41a:	9f 92       	push	r9
     41c:	af 92       	push	r10
     41e:	bf 92       	push	r11
     420:	cf 92       	push	r12
     422:	df 92       	push	r13
     424:	ef 92       	push	r14
     426:	ff 92       	push	r15
     428:	0f 93       	push	r16
     42a:	1f 93       	push	r17
     42c:	cf 93       	push	r28
     42e:	df 93       	push	r29
     430:	3c 01       	movw	r6, r24
     432:	2b 01       	movw	r4, r22
     434:	fb 01       	movw	r30, r22
     436:	c0 80       	ld	r12, Z
     438:	d1 80       	ldd	r13, Z+1	; 0x01
     43a:	5c 01       	movw	r10, r24
     43c:	fc e1       	ldi	r31, 0x1C	; 28
     43e:	af 0e       	add	r10, r31
     440:	b1 1c       	adc	r11, r1
     442:	4b e0       	ldi	r20, 0x0B	; 11
     444:	50 e0       	ldi	r21, 0x00	; 0
     446:	60 e2       	ldi	r22, 0x20	; 32
     448:	70 e0       	ldi	r23, 0x00	; 0
     44a:	c5 01       	movw	r24, r10
     44c:	ab de       	rcall	.-682    	; 0x1a4 <mem_set>
     44e:	e1 2c       	mov	r14, r1
     450:	f1 2c       	mov	r15, r1
     452:	00 e0       	ldi	r16, 0x00	; 0
     454:	10 e0       	ldi	r17, 0x00	; 0
     456:	68 94       	set
     458:	88 24       	eor	r8, r8
     45a:	83 f8       	bld	r8, 3
     45c:	91 2c       	mov	r9, r1
     45e:	e8 01       	movw	r28, r16
     460:	21 96       	adiw	r28, 0x01	; 1
     462:	f6 01       	movw	r30, r12
     464:	e0 0f       	add	r30, r16
     466:	f1 1f       	adc	r31, r17
     468:	30 80       	ld	r3, Z
     46a:	80 e2       	ldi	r24, 0x20	; 32
     46c:	83 15       	cp	r24, r3
     46e:	08 f0       	brcs	.+2      	; 0x472 <create_name+0x64>
     470:	61 c0       	rjmp	.+194    	; 0x534 <create_name+0x126>
     472:	9f e2       	ldi	r25, 0x2F	; 47
     474:	39 16       	cp	r3, r25
     476:	29 f0       	breq	.+10     	; 0x482 <create_name+0x74>
     478:	ec e5       	ldi	r30, 0x5C	; 92
     47a:	3e 12       	cpse	r3, r30
     47c:	0b c0       	rjmp	.+22     	; 0x494 <create_name+0x86>
     47e:	01 c0       	rjmp	.+2      	; 0x482 <create_name+0x74>
     480:	21 96       	adiw	r28, 0x01	; 1
     482:	f6 01       	movw	r30, r12
     484:	ec 0f       	add	r30, r28
     486:	fd 1f       	adc	r31, r29
     488:	80 81       	ld	r24, Z
     48a:	8f 32       	cpi	r24, 0x2F	; 47
     48c:	c9 f3       	breq	.-14     	; 0x480 <create_name+0x72>
     48e:	8c 35       	cpi	r24, 0x5C	; 92
     490:	b9 f3       	breq	.-18     	; 0x480 <create_name+0x72>
     492:	50 c0       	rjmp	.+160    	; 0x534 <create_name+0x126>
     494:	fe e2       	ldi	r31, 0x2E	; 46
     496:	3f 16       	cp	r3, r31
     498:	19 f0       	breq	.+6      	; 0x4a0 <create_name+0x92>
     49a:	e8 14       	cp	r14, r8
     49c:	f9 04       	cpc	r15, r9
     49e:	98 f0       	brcs	.+38     	; 0x4c6 <create_name+0xb8>
     4a0:	8b e0       	ldi	r24, 0x0B	; 11
     4a2:	88 16       	cp	r8, r24
     4a4:	91 04       	cpc	r9, r1
     4a6:	09 f4       	brne	.+2      	; 0x4aa <create_name+0x9c>
     4a8:	5c c0       	rjmp	.+184    	; 0x562 <create_name+0x154>
     4aa:	9e e2       	ldi	r25, 0x2E	; 46
     4ac:	39 12       	cpse	r3, r25
     4ae:	5b c0       	rjmp	.+182    	; 0x566 <create_name+0x158>
     4b0:	8e 01       	movw	r16, r28
     4b2:	68 94       	set
     4b4:	ee 24       	eor	r14, r14
     4b6:	e3 f8       	bld	r14, 3
     4b8:	f1 2c       	mov	r15, r1
     4ba:	0f 2e       	mov	r0, r31
     4bc:	fb e0       	ldi	r31, 0x0B	; 11
     4be:	8f 2e       	mov	r8, r31
     4c0:	91 2c       	mov	r9, r1
     4c2:	f0 2d       	mov	r31, r0
     4c4:	cc cf       	rjmp	.-104    	; 0x45e <create_name+0x50>
     4c6:	83 2d       	mov	r24, r3
     4c8:	9b de       	rcall	.-714    	; 0x200 <dbc_1st>
     4ca:	89 2b       	or	r24, r25
     4cc:	e9 f0       	breq	.+58     	; 0x508 <create_name+0xfa>
     4ce:	0e 5f       	subi	r16, 0xFE	; 254
     4d0:	1f 4f       	sbci	r17, 0xFF	; 255
     4d2:	cc 0d       	add	r28, r12
     4d4:	dd 1d       	adc	r29, r13
     4d6:	c8 81       	ld	r28, Y
     4d8:	8c 2f       	mov	r24, r28
     4da:	a9 de       	rcall	.-686    	; 0x22e <dbc_2nd>
     4dc:	89 2b       	or	r24, r25
     4de:	09 f4       	brne	.+2      	; 0x4e2 <create_name+0xd4>
     4e0:	44 c0       	rjmp	.+136    	; 0x56a <create_name+0x15c>
     4e2:	c4 01       	movw	r24, r8
     4e4:	01 97       	sbiw	r24, 0x01	; 1
     4e6:	e8 16       	cp	r14, r24
     4e8:	f9 06       	cpc	r15, r25
     4ea:	08 f0       	brcs	.+2      	; 0x4ee <create_name+0xe0>
     4ec:	40 c0       	rjmp	.+128    	; 0x56e <create_name+0x160>
     4ee:	f5 01       	movw	r30, r10
     4f0:	ee 0d       	add	r30, r14
     4f2:	ff 1d       	adc	r31, r15
     4f4:	30 82       	st	Z, r3
     4f6:	f7 01       	movw	r30, r14
     4f8:	31 96       	adiw	r30, 0x01	; 1
     4fa:	ea 0d       	add	r30, r10
     4fc:	fb 1d       	adc	r31, r11
     4fe:	82 e0       	ldi	r24, 0x02	; 2
     500:	e8 0e       	add	r14, r24
     502:	f1 1c       	adc	r15, r1
     504:	c0 83       	st	Z, r28
     506:	ab cf       	rjmp	.-170    	; 0x45e <create_name+0x50>
     508:	63 2d       	mov	r22, r3
     50a:	70 e0       	ldi	r23, 0x00	; 0
     50c:	85 e0       	ldi	r24, 0x05	; 5
     50e:	92 e0       	ldi	r25, 0x02	; 2
     510:	6a de       	rcall	.-812    	; 0x1e6 <chk_chr>
     512:	89 2b       	or	r24, r25
     514:	71 f5       	brne	.+92     	; 0x572 <create_name+0x164>
     516:	8f e9       	ldi	r24, 0x9F	; 159
     518:	83 0d       	add	r24, r3
     51a:	8a 31       	cpi	r24, 0x1A	; 26
     51c:	10 f4       	brcc	.+4      	; 0x522 <create_name+0x114>
     51e:	90 ee       	ldi	r25, 0xE0	; 224
     520:	39 0e       	add	r3, r25
     522:	f5 01       	movw	r30, r10
     524:	ee 0d       	add	r30, r14
     526:	ff 1d       	adc	r31, r15
     528:	30 82       	st	Z, r3
     52a:	f7 01       	movw	r30, r14
     52c:	31 96       	adiw	r30, 0x01	; 1
     52e:	7f 01       	movw	r14, r30
     530:	8e 01       	movw	r16, r28
     532:	95 cf       	rjmp	.-214    	; 0x45e <create_name+0x50>
     534:	cc 0d       	add	r28, r12
     536:	dd 1d       	adc	r29, r13
     538:	f2 01       	movw	r30, r4
     53a:	d1 83       	std	Z+1, r29	; 0x01
     53c:	c0 83       	st	Z, r28
     53e:	ef 28       	or	r14, r15
     540:	d1 f0       	breq	.+52     	; 0x576 <create_name+0x168>
     542:	f3 01       	movw	r30, r6
     544:	84 8d       	ldd	r24, Z+28	; 0x1c
     546:	85 3e       	cpi	r24, 0xE5	; 229
     548:	11 f4       	brne	.+4      	; 0x54e <create_name+0x140>
     54a:	85 e0       	ldi	r24, 0x05	; 5
     54c:	84 8f       	std	Z+28, r24	; 0x1c
     54e:	f0 e2       	ldi	r31, 0x20	; 32
     550:	f3 15       	cp	r31, r3
     552:	10 f0       	brcs	.+4      	; 0x558 <create_name+0x14a>
     554:	84 e0       	ldi	r24, 0x04	; 4
     556:	01 c0       	rjmp	.+2      	; 0x55a <create_name+0x14c>
     558:	80 e0       	ldi	r24, 0x00	; 0
     55a:	f3 01       	movw	r30, r6
     55c:	87 a3       	std	Z+39, r24	; 0x27
     55e:	80 e0       	ldi	r24, 0x00	; 0
     560:	0b c0       	rjmp	.+22     	; 0x578 <create_name+0x16a>
     562:	86 e0       	ldi	r24, 0x06	; 6
     564:	09 c0       	rjmp	.+18     	; 0x578 <create_name+0x16a>
     566:	86 e0       	ldi	r24, 0x06	; 6
     568:	07 c0       	rjmp	.+14     	; 0x578 <create_name+0x16a>
     56a:	86 e0       	ldi	r24, 0x06	; 6
     56c:	05 c0       	rjmp	.+10     	; 0x578 <create_name+0x16a>
     56e:	86 e0       	ldi	r24, 0x06	; 6
     570:	03 c0       	rjmp	.+6      	; 0x578 <create_name+0x16a>
     572:	86 e0       	ldi	r24, 0x06	; 6
     574:	01 c0       	rjmp	.+2      	; 0x578 <create_name+0x16a>
     576:	86 e0       	ldi	r24, 0x06	; 6
     578:	df 91       	pop	r29
     57a:	cf 91       	pop	r28
     57c:	1f 91       	pop	r17
     57e:	0f 91       	pop	r16
     580:	ff 90       	pop	r15
     582:	ef 90       	pop	r14
     584:	df 90       	pop	r13
     586:	cf 90       	pop	r12
     588:	bf 90       	pop	r11
     58a:	af 90       	pop	r10
     58c:	9f 90       	pop	r9
     58e:	8f 90       	pop	r8
     590:	7f 90       	pop	r7
     592:	6f 90       	pop	r6
     594:	5f 90       	pop	r5
     596:	4f 90       	pop	r4
     598:	3f 90       	pop	r3
     59a:	08 95       	ret

0000059c <get_ldnumber>:
     59c:	cf 93       	push	r28
     59e:	df 93       	push	r29
     5a0:	ec 01       	movw	r28, r24
     5a2:	a8 81       	ld	r26, Y
     5a4:	b9 81       	ldd	r27, Y+1	; 0x01
     5a6:	10 97       	sbiw	r26, 0x00	; 0
     5a8:	31 f1       	breq	.+76     	; 0x5f6 <get_ldnumber+0x5a>
     5aa:	fd 01       	movw	r30, r26
     5ac:	9f 01       	movw	r18, r30
     5ae:	2f 5f       	subi	r18, 0xFF	; 255
     5b0:	3f 4f       	sbci	r19, 0xFF	; 255
     5b2:	90 81       	ld	r25, Z
     5b4:	91 32       	cpi	r25, 0x21	; 33
     5b6:	18 f0       	brcs	.+6      	; 0x5be <get_ldnumber+0x22>
     5b8:	f9 01       	movw	r30, r18
     5ba:	9a 33       	cpi	r25, 0x3A	; 58
     5bc:	b9 f7       	brne	.-18     	; 0x5ac <get_ldnumber+0x10>
     5be:	9a 33       	cpi	r25, 0x3A	; 58
     5c0:	e9 f4       	brne	.+58     	; 0x5fc <get_ldnumber+0x60>
     5c2:	4c 91       	ld	r20, X
     5c4:	80 ed       	ldi	r24, 0xD0	; 208
     5c6:	84 0f       	add	r24, r20
     5c8:	8a 30       	cpi	r24, 0x0A	; 10
     5ca:	40 f4       	brcc	.+16     	; 0x5dc <get_ldnumber+0x40>
     5cc:	12 96       	adiw	r26, 0x02	; 2
     5ce:	2a 17       	cp	r18, r26
     5d0:	3b 07       	cpc	r19, r27
     5d2:	39 f4       	brne	.+14     	; 0x5e2 <get_ldnumber+0x46>
     5d4:	50 e0       	ldi	r21, 0x00	; 0
     5d6:	40 53       	subi	r20, 0x30	; 48
     5d8:	51 09       	sbc	r21, r1
     5da:	05 c0       	rjmp	.+10     	; 0x5e6 <get_ldnumber+0x4a>
     5dc:	41 e0       	ldi	r20, 0x01	; 1
     5de:	50 e0       	ldi	r21, 0x00	; 0
     5e0:	02 c0       	rjmp	.+4      	; 0x5e6 <get_ldnumber+0x4a>
     5e2:	41 e0       	ldi	r20, 0x01	; 1
     5e4:	50 e0       	ldi	r21, 0x00	; 0
     5e6:	14 16       	cp	r1, r20
     5e8:	15 06       	cpc	r1, r21
     5ea:	5c f0       	brlt	.+22     	; 0x602 <get_ldnumber+0x66>
     5ec:	39 83       	std	Y+1, r19	; 0x01
     5ee:	28 83       	st	Y, r18
     5f0:	84 2f       	mov	r24, r20
     5f2:	95 2f       	mov	r25, r21
     5f4:	08 c0       	rjmp	.+16     	; 0x606 <get_ldnumber+0x6a>
     5f6:	8f ef       	ldi	r24, 0xFF	; 255
     5f8:	9f ef       	ldi	r25, 0xFF	; 255
     5fa:	05 c0       	rjmp	.+10     	; 0x606 <get_ldnumber+0x6a>
     5fc:	80 e0       	ldi	r24, 0x00	; 0
     5fe:	90 e0       	ldi	r25, 0x00	; 0
     600:	02 c0       	rjmp	.+4      	; 0x606 <get_ldnumber+0x6a>
     602:	8f ef       	ldi	r24, 0xFF	; 255
     604:	9f ef       	ldi	r25, 0xFF	; 255
     606:	df 91       	pop	r29
     608:	cf 91       	pop	r28
     60a:	08 95       	ret

0000060c <validate>:
     60c:	0f 93       	push	r16
     60e:	1f 93       	push	r17
     610:	cf 93       	push	r28
     612:	df 93       	push	r29
     614:	ec 01       	movw	r28, r24
     616:	8b 01       	movw	r16, r22
     618:	89 2b       	or	r24, r25
     61a:	a9 f0       	breq	.+42     	; 0x646 <validate+0x3a>
     61c:	e8 81       	ld	r30, Y
     61e:	f9 81       	ldd	r31, Y+1	; 0x01
     620:	30 97       	sbiw	r30, 0x00	; 0
     622:	99 f0       	breq	.+38     	; 0x64a <validate+0x3e>
     624:	80 81       	ld	r24, Z
     626:	88 23       	and	r24, r24
     628:	91 f0       	breq	.+36     	; 0x64e <validate+0x42>
     62a:	2a 81       	ldd	r18, Y+2	; 0x02
     62c:	3b 81       	ldd	r19, Y+3	; 0x03
     62e:	85 81       	ldd	r24, Z+5	; 0x05
     630:	96 81       	ldd	r25, Z+6	; 0x06
     632:	28 17       	cp	r18, r24
     634:	39 07       	cpc	r19, r25
     636:	69 f4       	brne	.+26     	; 0x652 <validate+0x46>
     638:	81 81       	ldd	r24, Z+1	; 0x01
     63a:	0e 94 f6 14 	call	0x29ec	; 0x29ec <disk_status>
     63e:	80 ff       	sbrs	r24, 0
     640:	0a c0       	rjmp	.+20     	; 0x656 <validate+0x4a>
     642:	89 e0       	ldi	r24, 0x09	; 9
     644:	09 c0       	rjmp	.+18     	; 0x658 <validate+0x4c>
     646:	89 e0       	ldi	r24, 0x09	; 9
     648:	07 c0       	rjmp	.+14     	; 0x658 <validate+0x4c>
     64a:	89 e0       	ldi	r24, 0x09	; 9
     64c:	05 c0       	rjmp	.+10     	; 0x658 <validate+0x4c>
     64e:	89 e0       	ldi	r24, 0x09	; 9
     650:	03 c0       	rjmp	.+6      	; 0x658 <validate+0x4c>
     652:	89 e0       	ldi	r24, 0x09	; 9
     654:	01 c0       	rjmp	.+2      	; 0x658 <validate+0x4c>
     656:	80 e0       	ldi	r24, 0x00	; 0
     658:	81 11       	cpse	r24, r1
     65a:	03 c0       	rjmp	.+6      	; 0x662 <validate+0x56>
     65c:	28 81       	ld	r18, Y
     65e:	39 81       	ldd	r19, Y+1	; 0x01
     660:	02 c0       	rjmp	.+4      	; 0x666 <validate+0x5a>
     662:	20 e0       	ldi	r18, 0x00	; 0
     664:	30 e0       	ldi	r19, 0x00	; 0
     666:	f8 01       	movw	r30, r16
     668:	31 83       	std	Z+1, r19	; 0x01
     66a:	20 83       	st	Z, r18
     66c:	df 91       	pop	r29
     66e:	cf 91       	pop	r28
     670:	1f 91       	pop	r17
     672:	0f 91       	pop	r16
     674:	08 95       	ret

00000676 <sync_window>:
     676:	8f 92       	push	r8
     678:	9f 92       	push	r9
     67a:	af 92       	push	r10
     67c:	bf 92       	push	r11
     67e:	ef 92       	push	r14
     680:	ff 92       	push	r15
     682:	0f 93       	push	r16
     684:	1f 93       	push	r17
     686:	cf 93       	push	r28
     688:	df 93       	push	r29
     68a:	fc 01       	movw	r30, r24
     68c:	23 81       	ldd	r18, Z+3	; 0x03
     68e:	22 23       	and	r18, r18
     690:	d1 f1       	breq	.+116    	; 0x706 <sync_window+0x90>
     692:	ec 01       	movw	r28, r24
     694:	7c 01       	movw	r14, r24
     696:	ff e2       	ldi	r31, 0x2F	; 47
     698:	ef 0e       	add	r14, r31
     69a:	f1 1c       	adc	r15, r1
     69c:	2b a5       	ldd	r18, Y+43	; 0x2b
     69e:	3c a5       	ldd	r19, Y+44	; 0x2c
     6a0:	4d a5       	ldd	r20, Y+45	; 0x2d
     6a2:	5e a5       	ldd	r21, Y+46	; 0x2e
     6a4:	01 e0       	ldi	r16, 0x01	; 1
     6a6:	10 e0       	ldi	r17, 0x00	; 0
     6a8:	b7 01       	movw	r22, r14
     6aa:	89 81       	ldd	r24, Y+1	; 0x01
     6ac:	0e 94 51 15 	call	0x2aa2	; 0x2aa2 <disk_write>
     6b0:	81 11       	cpse	r24, r1
     6b2:	2b c0       	rjmp	.+86     	; 0x70a <sync_window+0x94>
     6b4:	1b 82       	std	Y+3, r1	; 0x03
     6b6:	0b a5       	ldd	r16, Y+43	; 0x2b
     6b8:	1c a5       	ldd	r17, Y+44	; 0x2c
     6ba:	2d a5       	ldd	r18, Y+45	; 0x2d
     6bc:	3e a5       	ldd	r19, Y+46	; 0x2e
     6be:	8f 8d       	ldd	r24, Y+31	; 0x1f
     6c0:	98 a1       	ldd	r25, Y+32	; 0x20
     6c2:	a9 a1       	ldd	r26, Y+33	; 0x21
     6c4:	ba a1       	ldd	r27, Y+34	; 0x22
     6c6:	48 01       	movw	r8, r16
     6c8:	59 01       	movw	r10, r18
     6ca:	88 1a       	sub	r8, r24
     6cc:	99 0a       	sbc	r9, r25
     6ce:	aa 0a       	sbc	r10, r26
     6d0:	bb 0a       	sbc	r11, r27
     6d2:	8f 89       	ldd	r24, Y+23	; 0x17
     6d4:	98 8d       	ldd	r25, Y+24	; 0x18
     6d6:	a9 8d       	ldd	r26, Y+25	; 0x19
     6d8:	ba 8d       	ldd	r27, Y+26	; 0x1a
     6da:	88 16       	cp	r8, r24
     6dc:	99 06       	cpc	r9, r25
     6de:	aa 06       	cpc	r10, r26
     6e0:	bb 06       	cpc	r11, r27
     6e2:	a8 f4       	brcc	.+42     	; 0x70e <sync_window+0x98>
     6e4:	6a 81       	ldd	r22, Y+2	; 0x02
     6e6:	62 30       	cpi	r22, 0x02	; 2
     6e8:	a1 f4       	brne	.+40     	; 0x712 <sync_window+0x9c>
     6ea:	a9 01       	movw	r20, r18
     6ec:	98 01       	movw	r18, r16
     6ee:	28 0f       	add	r18, r24
     6f0:	39 1f       	adc	r19, r25
     6f2:	4a 1f       	adc	r20, r26
     6f4:	5b 1f       	adc	r21, r27
     6f6:	01 e0       	ldi	r16, 0x01	; 1
     6f8:	10 e0       	ldi	r17, 0x00	; 0
     6fa:	b7 01       	movw	r22, r14
     6fc:	89 81       	ldd	r24, Y+1	; 0x01
     6fe:	0e 94 51 15 	call	0x2aa2	; 0x2aa2 <disk_write>
     702:	80 e0       	ldi	r24, 0x00	; 0
     704:	07 c0       	rjmp	.+14     	; 0x714 <sync_window+0x9e>
     706:	80 e0       	ldi	r24, 0x00	; 0
     708:	05 c0       	rjmp	.+10     	; 0x714 <sync_window+0x9e>
     70a:	81 e0       	ldi	r24, 0x01	; 1
     70c:	03 c0       	rjmp	.+6      	; 0x714 <sync_window+0x9e>
     70e:	80 e0       	ldi	r24, 0x00	; 0
     710:	01 c0       	rjmp	.+2      	; 0x714 <sync_window+0x9e>
     712:	80 e0       	ldi	r24, 0x00	; 0
     714:	df 91       	pop	r29
     716:	cf 91       	pop	r28
     718:	1f 91       	pop	r17
     71a:	0f 91       	pop	r16
     71c:	ff 90       	pop	r15
     71e:	ef 90       	pop	r14
     720:	bf 90       	pop	r11
     722:	af 90       	pop	r10
     724:	9f 90       	pop	r9
     726:	8f 90       	pop	r8
     728:	08 95       	ret

0000072a <move_window>:
     72a:	8f 92       	push	r8
     72c:	9f 92       	push	r9
     72e:	af 92       	push	r10
     730:	bf 92       	push	r11
     732:	ff 92       	push	r15
     734:	0f 93       	push	r16
     736:	1f 93       	push	r17
     738:	cf 93       	push	r28
     73a:	df 93       	push	r29
     73c:	ec 01       	movw	r28, r24
     73e:	4a 01       	movw	r8, r20
     740:	5b 01       	movw	r10, r22
     742:	8b a5       	ldd	r24, Y+43	; 0x2b
     744:	9c a5       	ldd	r25, Y+44	; 0x2c
     746:	ad a5       	ldd	r26, Y+45	; 0x2d
     748:	be a5       	ldd	r27, Y+46	; 0x2e
     74a:	84 17       	cp	r24, r20
     74c:	95 07       	cpc	r25, r21
     74e:	a6 07       	cpc	r26, r22
     750:	b7 07       	cpc	r27, r23
     752:	e1 f0       	breq	.+56     	; 0x78c <move_window+0x62>
     754:	ce 01       	movw	r24, r28
     756:	8f df       	rcall	.-226    	; 0x676 <sync_window>
     758:	f8 2e       	mov	r15, r24
     75a:	81 11       	cpse	r24, r1
     75c:	18 c0       	rjmp	.+48     	; 0x78e <move_window+0x64>
     75e:	01 e0       	ldi	r16, 0x01	; 1
     760:	10 e0       	ldi	r17, 0x00	; 0
     762:	a5 01       	movw	r20, r10
     764:	94 01       	movw	r18, r8
     766:	be 01       	movw	r22, r28
     768:	61 5d       	subi	r22, 0xD1	; 209
     76a:	7f 4f       	sbci	r23, 0xFF	; 255
     76c:	89 81       	ldd	r24, Y+1	; 0x01
     76e:	0e 94 11 15 	call	0x2a22	; 0x2a22 <disk_read>
     772:	88 23       	and	r24, r24
     774:	31 f0       	breq	.+12     	; 0x782 <move_window+0x58>
     776:	ff 24       	eor	r15, r15
     778:	f3 94       	inc	r15
     77a:	88 24       	eor	r8, r8
     77c:	8a 94       	dec	r8
     77e:	98 2c       	mov	r9, r8
     780:	54 01       	movw	r10, r8
     782:	8b a6       	std	Y+43, r8	; 0x2b
     784:	9c a6       	std	Y+44, r9	; 0x2c
     786:	ad a6       	std	Y+45, r10	; 0x2d
     788:	be a6       	std	Y+46, r11	; 0x2e
     78a:	01 c0       	rjmp	.+2      	; 0x78e <move_window+0x64>
     78c:	f1 2c       	mov	r15, r1
     78e:	8f 2d       	mov	r24, r15
     790:	df 91       	pop	r29
     792:	cf 91       	pop	r28
     794:	1f 91       	pop	r17
     796:	0f 91       	pop	r16
     798:	ff 90       	pop	r15
     79a:	bf 90       	pop	r11
     79c:	af 90       	pop	r10
     79e:	9f 90       	pop	r9
     7a0:	8f 90       	pop	r8
     7a2:	08 95       	ret

000007a4 <check_fs>:
     7a4:	ef 92       	push	r14
     7a6:	ff 92       	push	r15
     7a8:	0f 93       	push	r16
     7aa:	1f 93       	push	r17
     7ac:	cf 93       	push	r28
     7ae:	df 93       	push	r29
     7b0:	ec 01       	movw	r28, r24
     7b2:	1b 82       	std	Y+3, r1	; 0x03
     7b4:	8f ef       	ldi	r24, 0xFF	; 255
     7b6:	9f ef       	ldi	r25, 0xFF	; 255
     7b8:	dc 01       	movw	r26, r24
     7ba:	8b a7       	std	Y+43, r24	; 0x2b
     7bc:	9c a7       	std	Y+44, r25	; 0x2c
     7be:	ad a7       	std	Y+45, r26	; 0x2d
     7c0:	be a7       	std	Y+46, r27	; 0x2e
     7c2:	ce 01       	movw	r24, r28
     7c4:	b2 df       	rcall	.-156    	; 0x72a <move_window>
     7c6:	81 11       	cpse	r24, r1
     7c8:	51 c0       	rjmp	.+162    	; 0x86c <check_fs+0xc8>
     7ca:	ce 01       	movw	r24, r28
     7cc:	83 5d       	subi	r24, 0xD3	; 211
     7ce:	9d 4f       	sbci	r25, 0xFD	; 253
     7d0:	ab dc       	rcall	.-1706   	; 0x128 <ld_word>
     7d2:	7c 01       	movw	r14, r24
     7d4:	8f a5       	ldd	r24, Y+47	; 0x2f
     7d6:	8b 3e       	cpi	r24, 0xEB	; 235
     7d8:	29 f0       	breq	.+10     	; 0x7e4 <check_fs+0x40>
     7da:	89 3e       	cpi	r24, 0xE9	; 233
     7dc:	19 f0       	breq	.+6      	; 0x7e4 <check_fs+0x40>
     7de:	88 3e       	cpi	r24, 0xE8	; 232
     7e0:	09 f0       	breq	.+2      	; 0x7e4 <check_fs+0x40>
     7e2:	3c c0       	rjmp	.+120    	; 0x85c <check_fs+0xb8>
     7e4:	25 e5       	ldi	r18, 0x55	; 85
     7e6:	e2 16       	cp	r14, r18
     7e8:	2a ea       	ldi	r18, 0xAA	; 170
     7ea:	f2 06       	cpc	r15, r18
     7ec:	51 f4       	brne	.+20     	; 0x802 <check_fs+0x5e>
     7ee:	48 e0       	ldi	r20, 0x08	; 8
     7f0:	50 e0       	ldi	r21, 0x00	; 0
     7f2:	64 e1       	ldi	r22, 0x14	; 20
     7f4:	72 e0       	ldi	r23, 0x02	; 2
     7f6:	ce 01       	movw	r24, r28
     7f8:	8f 57       	subi	r24, 0x7F	; 127
     7fa:	9f 4f       	sbci	r25, 0xFF	; 255
     7fc:	dc dc       	rcall	.-1608   	; 0x1b6 <mem_cmp>
     7fe:	89 2b       	or	r24, r25
     800:	c1 f1       	breq	.+112    	; 0x872 <check_fs+0xce>
     802:	ce 01       	movw	r24, r28
     804:	ca 96       	adiw	r24, 0x3a	; 58
     806:	90 dc       	rcall	.-1760   	; 0x128 <ld_word>
     808:	8c 01       	movw	r16, r24
     80a:	01 50       	subi	r16, 0x01	; 1
     80c:	11 09       	sbc	r17, r1
     80e:	08 23       	and	r16, r24
     810:	19 23       	and	r17, r25
     812:	01 15       	cp	r16, r1
     814:	11 05       	cpc	r17, r1
     816:	11 f5       	brne	.+68     	; 0x85c <check_fs+0xb8>
     818:	81 15       	cp	r24, r1
     81a:	22 e0       	ldi	r18, 0x02	; 2
     81c:	92 07       	cpc	r25, r18
     81e:	f0 f0       	brcs	.+60     	; 0x85c <check_fs+0xb8>
     820:	81 30       	cpi	r24, 0x01	; 1
     822:	92 40       	sbci	r25, 0x02	; 2
     824:	d8 f4       	brcc	.+54     	; 0x85c <check_fs+0xb8>
     826:	8c ad       	ldd	r24, Y+60	; 0x3c
     828:	88 23       	and	r24, r24
     82a:	c1 f0       	breq	.+48     	; 0x85c <check_fs+0xb8>
     82c:	90 e0       	ldi	r25, 0x00	; 0
     82e:	9c 01       	movw	r18, r24
     830:	21 50       	subi	r18, 0x01	; 1
     832:	31 09       	sbc	r19, r1
     834:	82 23       	and	r24, r18
     836:	93 23       	and	r25, r19
     838:	89 2b       	or	r24, r25
     83a:	81 f4       	brne	.+32     	; 0x85c <check_fs+0xb8>
     83c:	8f ad       	ldd	r24, Y+63	; 0x3f
     83e:	81 50       	subi	r24, 0x01	; 1
     840:	82 30       	cpi	r24, 0x02	; 2
     842:	60 f4       	brcc	.+24     	; 0x85c <check_fs+0xb8>
     844:	ce 01       	movw	r24, r28
     846:	80 5c       	subi	r24, 0xC0	; 192
     848:	9f 4f       	sbci	r25, 0xFF	; 255
     84a:	6e dc       	rcall	.-1828   	; 0x128 <ld_word>
     84c:	89 2b       	or	r24, r25
     84e:	31 f0       	breq	.+12     	; 0x85c <check_fs+0xb8>
     850:	ce 01       	movw	r24, r28
     852:	8b 5b       	subi	r24, 0xBB	; 187
     854:	9f 4f       	sbci	r25, 0xFF	; 255
     856:	68 dc       	rcall	.-1840   	; 0x128 <ld_word>
     858:	89 2b       	or	r24, r25
     85a:	81 f4       	brne	.+32     	; 0x87c <check_fs+0xd8>
     85c:	85 e5       	ldi	r24, 0x55	; 85
     85e:	e8 16       	cp	r14, r24
     860:	8a ea       	ldi	r24, 0xAA	; 170
     862:	f8 06       	cpc	r15, r24
     864:	49 f4       	brne	.+18     	; 0x878 <check_fs+0xd4>
     866:	02 e0       	ldi	r16, 0x02	; 2
     868:	10 e0       	ldi	r17, 0x00	; 0
     86a:	08 c0       	rjmp	.+16     	; 0x87c <check_fs+0xd8>
     86c:	04 e0       	ldi	r16, 0x04	; 4
     86e:	10 e0       	ldi	r17, 0x00	; 0
     870:	05 c0       	rjmp	.+10     	; 0x87c <check_fs+0xd8>
     872:	00 e0       	ldi	r16, 0x00	; 0
     874:	10 e0       	ldi	r17, 0x00	; 0
     876:	02 c0       	rjmp	.+4      	; 0x87c <check_fs+0xd8>
     878:	03 e0       	ldi	r16, 0x03	; 3
     87a:	10 e0       	ldi	r17, 0x00	; 0
     87c:	c8 01       	movw	r24, r16
     87e:	df 91       	pop	r29
     880:	cf 91       	pop	r28
     882:	1f 91       	pop	r17
     884:	0f 91       	pop	r16
     886:	ff 90       	pop	r15
     888:	ef 90       	pop	r14
     88a:	08 95       	ret

0000088c <find_volume>:
     88c:	cf 92       	push	r12
     88e:	df 92       	push	r13
     890:	ef 92       	push	r14
     892:	ff 92       	push	r15
     894:	0f 93       	push	r16
     896:	1f 93       	push	r17
     898:	cf 93       	push	r28
     89a:	df 93       	push	r29
     89c:	cd b7       	in	r28, 0x3d	; 61
     89e:	de b7       	in	r29, 0x3e	; 62
     8a0:	60 97       	sbiw	r28, 0x10	; 16
     8a2:	0f b6       	in	r0, 0x3f	; 63
     8a4:	f8 94       	cli
     8a6:	de bf       	out	0x3e, r29	; 62
     8a8:	0f be       	out	0x3f, r0	; 63
     8aa:	cd bf       	out	0x3d, r28	; 61
     8ac:	6c 01       	movw	r12, r24
     8ae:	7b 01       	movw	r14, r22
     8b0:	40 e0       	ldi	r20, 0x00	; 0
     8b2:	50 e0       	ldi	r21, 0x00	; 0
     8b4:	ba 01       	movw	r22, r20
     8b6:	76 df       	rcall	.-276    	; 0x7a4 <check_fs>
     8b8:	82 30       	cpi	r24, 0x02	; 2
     8ba:	91 05       	cpc	r25, r1
     8bc:	51 f1       	breq	.+84     	; 0x912 <find_volume+0x86>
     8be:	08 f0       	brcs	.+2      	; 0x8c2 <find_volume+0x36>
     8c0:	5a c0       	rjmp	.+180    	; 0x976 <find_volume+0xea>
     8c2:	e1 14       	cp	r14, r1
     8c4:	f1 04       	cpc	r15, r1
     8c6:	09 f4       	brne	.+2      	; 0x8ca <find_volume+0x3e>
     8c8:	56 c0       	rjmp	.+172    	; 0x976 <find_volume+0xea>
     8ca:	00 e0       	ldi	r16, 0x00	; 0
     8cc:	10 e0       	ldi	r17, 0x00	; 0
     8ce:	23 c0       	rjmp	.+70     	; 0x916 <find_volume+0x8a>
     8d0:	c8 01       	movw	r24, r16
     8d2:	82 95       	swap	r24
     8d4:	92 95       	swap	r25
     8d6:	90 7f       	andi	r25, 0xF0	; 240
     8d8:	98 27       	eor	r25, r24
     8da:	80 7f       	andi	r24, 0xF0	; 240
     8dc:	98 27       	eor	r25, r24
     8de:	8a 53       	subi	r24, 0x3A	; 58
     8e0:	9e 4f       	sbci	r25, 0xFE	; 254
     8e2:	96 01       	movw	r18, r12
     8e4:	21 5d       	subi	r18, 0xD1	; 209
     8e6:	3f 4f       	sbci	r19, 0xFF	; 255
     8e8:	82 0f       	add	r24, r18
     8ea:	93 1f       	adc	r25, r19
     8ec:	27 dc       	rcall	.-1970   	; 0x13c <ld_dword>
     8ee:	f8 01       	movw	r30, r16
     8f0:	ee 0f       	add	r30, r30
     8f2:	ff 1f       	adc	r31, r31
     8f4:	ee 0f       	add	r30, r30
     8f6:	ff 1f       	adc	r31, r31
     8f8:	21 e0       	ldi	r18, 0x01	; 1
     8fa:	30 e0       	ldi	r19, 0x00	; 0
     8fc:	2c 0f       	add	r18, r28
     8fe:	3d 1f       	adc	r19, r29
     900:	e2 0f       	add	r30, r18
     902:	f3 1f       	adc	r31, r19
     904:	60 83       	st	Z, r22
     906:	71 83       	std	Z+1, r23	; 0x01
     908:	82 83       	std	Z+2, r24	; 0x02
     90a:	93 83       	std	Z+3, r25	; 0x03
     90c:	0f 5f       	subi	r16, 0xFF	; 255
     90e:	1f 4f       	sbci	r17, 0xFF	; 255
     910:	02 c0       	rjmp	.+4      	; 0x916 <find_volume+0x8a>
     912:	00 e0       	ldi	r16, 0x00	; 0
     914:	10 e0       	ldi	r17, 0x00	; 0
     916:	04 30       	cpi	r16, 0x04	; 4
     918:	11 05       	cpc	r17, r1
     91a:	d0 f2       	brcs	.-76     	; 0x8d0 <find_volume+0x44>
     91c:	e1 14       	cp	r14, r1
     91e:	f1 04       	cpc	r15, r1
     920:	21 f0       	breq	.+8      	; 0x92a <find_volume+0x9e>
     922:	87 01       	movw	r16, r14
     924:	01 50       	subi	r16, 0x01	; 1
     926:	11 09       	sbc	r17, r1
     928:	02 c0       	rjmp	.+4      	; 0x92e <find_volume+0xa2>
     92a:	00 e0       	ldi	r16, 0x00	; 0
     92c:	10 e0       	ldi	r17, 0x00	; 0
     92e:	f8 01       	movw	r30, r16
     930:	ee 0f       	add	r30, r30
     932:	ff 1f       	adc	r31, r31
     934:	ee 0f       	add	r30, r30
     936:	ff 1f       	adc	r31, r31
     938:	81 e0       	ldi	r24, 0x01	; 1
     93a:	90 e0       	ldi	r25, 0x00	; 0
     93c:	8c 0f       	add	r24, r28
     93e:	9d 1f       	adc	r25, r29
     940:	e8 0f       	add	r30, r24
     942:	f9 1f       	adc	r31, r25
     944:	40 81       	ld	r20, Z
     946:	51 81       	ldd	r21, Z+1	; 0x01
     948:	62 81       	ldd	r22, Z+2	; 0x02
     94a:	73 81       	ldd	r23, Z+3	; 0x03
     94c:	41 15       	cp	r20, r1
     94e:	51 05       	cpc	r21, r1
     950:	61 05       	cpc	r22, r1
     952:	71 05       	cpc	r23, r1
     954:	19 f0       	breq	.+6      	; 0x95c <find_volume+0xd0>
     956:	c6 01       	movw	r24, r12
     958:	25 df       	rcall	.-438    	; 0x7a4 <check_fs>
     95a:	02 c0       	rjmp	.+4      	; 0x960 <find_volume+0xd4>
     95c:	83 e0       	ldi	r24, 0x03	; 3
     95e:	90 e0       	ldi	r25, 0x00	; 0
     960:	e1 14       	cp	r14, r1
     962:	f1 04       	cpc	r15, r1
     964:	41 f4       	brne	.+16     	; 0x976 <find_volume+0xea>
     966:	82 30       	cpi	r24, 0x02	; 2
     968:	91 05       	cpc	r25, r1
     96a:	28 f0       	brcs	.+10     	; 0x976 <find_volume+0xea>
     96c:	0f 5f       	subi	r16, 0xFF	; 255
     96e:	1f 4f       	sbci	r17, 0xFF	; 255
     970:	04 30       	cpi	r16, 0x04	; 4
     972:	11 05       	cpc	r17, r1
     974:	e0 f2       	brcs	.-72     	; 0x92e <find_volume+0xa2>
     976:	60 96       	adiw	r28, 0x10	; 16
     978:	0f b6       	in	r0, 0x3f	; 63
     97a:	f8 94       	cli
     97c:	de bf       	out	0x3e, r29	; 62
     97e:	0f be       	out	0x3f, r0	; 63
     980:	cd bf       	out	0x3d, r28	; 61
     982:	df 91       	pop	r29
     984:	cf 91       	pop	r28
     986:	1f 91       	pop	r17
     988:	0f 91       	pop	r16
     98a:	ff 90       	pop	r15
     98c:	ef 90       	pop	r14
     98e:	df 90       	pop	r13
     990:	cf 90       	pop	r12
     992:	08 95       	ret

00000994 <mount_volume>:
     994:	2f 92       	push	r2
     996:	3f 92       	push	r3
     998:	4f 92       	push	r4
     99a:	5f 92       	push	r5
     99c:	6f 92       	push	r6
     99e:	7f 92       	push	r7
     9a0:	8f 92       	push	r8
     9a2:	9f 92       	push	r9
     9a4:	af 92       	push	r10
     9a6:	bf 92       	push	r11
     9a8:	cf 92       	push	r12
     9aa:	df 92       	push	r13
     9ac:	ef 92       	push	r14
     9ae:	ff 92       	push	r15
     9b0:	0f 93       	push	r16
     9b2:	1f 93       	push	r17
     9b4:	cf 93       	push	r28
     9b6:	df 93       	push	r29
     9b8:	cd b7       	in	r28, 0x3d	; 61
     9ba:	de b7       	in	r29, 0x3e	; 62
     9bc:	2e 97       	sbiw	r28, 0x0e	; 14
     9be:	0f b6       	in	r0, 0x3f	; 63
     9c0:	f8 94       	cli
     9c2:	de bf       	out	0x3e, r29	; 62
     9c4:	0f be       	out	0x3f, r0	; 63
     9c6:	cd bf       	out	0x3d, r28	; 61
     9c8:	7b 01       	movw	r14, r22
     9ca:	d4 2e       	mov	r13, r20
     9cc:	db 01       	movw	r26, r22
     9ce:	1d 92       	st	X+, r1
     9d0:	1c 92       	st	X, r1
     9d2:	e4 dd       	rcall	.-1080   	; 0x59c <get_ldnumber>
     9d4:	8c 01       	movw	r16, r24
     9d6:	99 23       	and	r25, r25
     9d8:	0c f4       	brge	.+2      	; 0x9dc <mount_volume+0x48>
     9da:	0b c2       	rjmp	.+1046   	; 0xdf2 <mount_volume+0x45e>
     9dc:	fc 01       	movw	r30, r24
     9de:	ee 0f       	add	r30, r30
     9e0:	ff 1f       	adc	r31, r31
     9e2:	e4 5c       	subi	r30, 0xC4	; 196
     9e4:	fd 4f       	sbci	r31, 0xFD	; 253
     9e6:	20 81       	ld	r18, Z
     9e8:	31 81       	ldd	r19, Z+1	; 0x01
     9ea:	3e 87       	std	Y+14, r19	; 0x0e
     9ec:	2d 87       	std	Y+13, r18	; 0x0d
     9ee:	21 15       	cp	r18, r1
     9f0:	31 05       	cpc	r19, r1
     9f2:	09 f4       	brne	.+2      	; 0x9f6 <mount_volume+0x62>
     9f4:	00 c2       	rjmp	.+1024   	; 0xdf6 <mount_volume+0x462>
     9f6:	d7 01       	movw	r26, r14
     9f8:	2d 93       	st	X+, r18
     9fa:	3c 93       	st	X, r19
     9fc:	bd 2d       	mov	r27, r13
     9fe:	be 7f       	andi	r27, 0xFE	; 254
     a00:	db 2e       	mov	r13, r27
     a02:	f9 01       	movw	r30, r18
     a04:	80 81       	ld	r24, Z
     a06:	88 23       	and	r24, r24
     a08:	61 f0       	breq	.+24     	; 0xa22 <mount_volume+0x8e>
     a0a:	81 81       	ldd	r24, Z+1	; 0x01
     a0c:	0e 94 f6 14 	call	0x29ec	; 0x29ec <disk_status>
     a10:	80 fd       	sbrc	r24, 0
     a12:	07 c0       	rjmp	.+14     	; 0xa22 <mount_volume+0x8e>
     a14:	dd 20       	and	r13, r13
     a16:	09 f4       	brne	.+2      	; 0xa1a <mount_volume+0x86>
     a18:	f0 c1       	rjmp	.+992    	; 0xdfa <mount_volume+0x466>
     a1a:	82 fd       	sbrc	r24, 2
     a1c:	f0 c1       	rjmp	.+992    	; 0xdfe <mount_volume+0x46a>
     a1e:	80 e0       	ldi	r24, 0x00	; 0
     a20:	11 c2       	rjmp	.+1058   	; 0xe44 <mount_volume+0x4b0>
     a22:	ad 85       	ldd	r26, Y+13	; 0x0d
     a24:	be 85       	ldd	r27, Y+14	; 0x0e
     a26:	1c 92       	st	X, r1
     a28:	11 96       	adiw	r26, 0x01	; 1
     a2a:	0c 93       	st	X, r16
     a2c:	80 2f       	mov	r24, r16
     a2e:	0e 94 fd 14 	call	0x29fa	; 0x29fa <disk_initialize>
     a32:	80 fd       	sbrc	r24, 0
     a34:	e6 c1       	rjmp	.+972    	; 0xe02 <mount_volume+0x46e>
     a36:	dd 20       	and	r13, r13
     a38:	11 f0       	breq	.+4      	; 0xa3e <mount_volume+0xaa>
     a3a:	82 fd       	sbrc	r24, 2
     a3c:	e4 c1       	rjmp	.+968    	; 0xe06 <mount_volume+0x472>
     a3e:	60 e0       	ldi	r22, 0x00	; 0
     a40:	70 e0       	ldi	r23, 0x00	; 0
     a42:	8d 85       	ldd	r24, Y+13	; 0x0d
     a44:	9e 85       	ldd	r25, Y+14	; 0x0e
     a46:	22 df       	rcall	.-444    	; 0x88c <find_volume>
     a48:	84 30       	cpi	r24, 0x04	; 4
     a4a:	91 05       	cpc	r25, r1
     a4c:	09 f4       	brne	.+2      	; 0xa50 <mount_volume+0xbc>
     a4e:	dd c1       	rjmp	.+954    	; 0xe0a <mount_volume+0x476>
     a50:	02 97       	sbiw	r24, 0x02	; 2
     a52:	08 f0       	brcs	.+2      	; 0xa56 <mount_volume+0xc2>
     a54:	dc c1       	rjmp	.+952    	; 0xe0e <mount_volume+0x47a>
     a56:	ed 85       	ldd	r30, Y+13	; 0x0d
     a58:	fe 85       	ldd	r31, Y+14	; 0x0e
     a5a:	43 a4       	ldd	r4, Z+43	; 0x2b
     a5c:	54 a4       	ldd	r5, Z+44	; 0x2c
     a5e:	65 a4       	ldd	r6, Z+45	; 0x2d
     a60:	76 a4       	ldd	r7, Z+46	; 0x2e
     a62:	cf 01       	movw	r24, r30
     a64:	ca 96       	adiw	r24, 0x3a	; 58
     a66:	60 db       	rcall	.-2368   	; 0x128 <ld_word>
     a68:	81 15       	cp	r24, r1
     a6a:	92 40       	sbci	r25, 0x02	; 2
     a6c:	09 f0       	breq	.+2      	; 0xa70 <mount_volume+0xdc>
     a6e:	d1 c1       	rjmp	.+930    	; 0xe12 <mount_volume+0x47e>
     a70:	8d 85       	ldd	r24, Y+13	; 0x0d
     a72:	9e 85       	ldd	r25, Y+14	; 0x0e
     a74:	8b 5b       	subi	r24, 0xBB	; 187
     a76:	9f 4f       	sbci	r25, 0xFF	; 255
     a78:	57 db       	rcall	.-2386   	; 0x128 <ld_word>
     a7a:	4c 01       	movw	r8, r24
     a7c:	a1 2c       	mov	r10, r1
     a7e:	b1 2c       	mov	r11, r1
     a80:	81 14       	cp	r8, r1
     a82:	91 04       	cpc	r9, r1
     a84:	a1 04       	cpc	r10, r1
     a86:	b1 04       	cpc	r11, r1
     a88:	39 f4       	brne	.+14     	; 0xa98 <mount_volume+0x104>
     a8a:	8d 85       	ldd	r24, Y+13	; 0x0d
     a8c:	9e 85       	ldd	r25, Y+14	; 0x0e
     a8e:	8d 5a       	subi	r24, 0xAD	; 173
     a90:	9f 4f       	sbci	r25, 0xFF	; 255
     a92:	54 db       	rcall	.-2392   	; 0x13c <ld_dword>
     a94:	4b 01       	movw	r8, r22
     a96:	5c 01       	movw	r10, r24
     a98:	ad 85       	ldd	r26, Y+13	; 0x0d
     a9a:	be 85       	ldd	r27, Y+14	; 0x0e
     a9c:	57 96       	adiw	r26, 0x17	; 23
     a9e:	8d 92       	st	X+, r8
     aa0:	9d 92       	st	X+, r9
     aa2:	ad 92       	st	X+, r10
     aa4:	bc 92       	st	X, r11
     aa6:	5a 97       	sbiw	r26, 0x1a	; 26
     aa8:	fd 01       	movw	r30, r26
     aaa:	a7 ad       	ldd	r26, Z+63	; 0x3f
     aac:	a2 83       	std	Z+2, r26	; 0x02
     aae:	8f ef       	ldi	r24, 0xFF	; 255
     ab0:	8a 0f       	add	r24, r26
     ab2:	82 30       	cpi	r24, 0x02	; 2
     ab4:	08 f0       	brcs	.+2      	; 0xab8 <mount_volume+0x124>
     ab6:	af c1       	rjmp	.+862    	; 0xe16 <mount_volume+0x482>
     ab8:	b0 e0       	ldi	r27, 0x00	; 0
     aba:	a5 01       	movw	r20, r10
     abc:	94 01       	movw	r18, r8
     abe:	0e 94 a2 1d 	call	0x3b44	; 0x3b44 <__muluhisi3>
     ac2:	6d 83       	std	Y+5, r22	; 0x05
     ac4:	7e 83       	std	Y+6, r23	; 0x06
     ac6:	8f 83       	std	Y+7, r24	; 0x07
     ac8:	98 87       	std	Y+8, r25	; 0x08
     aca:	04 ad       	ldd	r16, Z+60	; 0x3c
     acc:	10 e0       	ldi	r17, 0x00	; 0
     ace:	12 87       	std	Z+10, r17	; 0x0a
     ad0:	01 87       	std	Z+9, r16	; 0x09
     ad2:	01 15       	cp	r16, r1
     ad4:	11 05       	cpc	r17, r1
     ad6:	09 f4       	brne	.+2      	; 0xada <mount_volume+0x146>
     ad8:	a0 c1       	rjmp	.+832    	; 0xe1a <mount_volume+0x486>
     ada:	c8 01       	movw	r24, r16
     adc:	01 97       	sbiw	r24, 0x01	; 1
     ade:	80 23       	and	r24, r16
     ae0:	91 23       	and	r25, r17
     ae2:	89 2b       	or	r24, r25
     ae4:	09 f0       	breq	.+2      	; 0xae8 <mount_volume+0x154>
     ae6:	9b c1       	rjmp	.+822    	; 0xe1e <mount_volume+0x48a>
     ae8:	cf 01       	movw	r24, r30
     aea:	80 5c       	subi	r24, 0xC0	; 192
     aec:	9f 4f       	sbci	r25, 0xFF	; 255
     aee:	1c db       	rcall	.-2504   	; 0x128 <ld_word>
     af0:	1c 01       	movw	r2, r24
     af2:	ad 85       	ldd	r26, Y+13	; 0x0d
     af4:	be 85       	ldd	r27, Y+14	; 0x0e
     af6:	18 96       	adiw	r26, 0x08	; 8
     af8:	9c 93       	st	X, r25
     afa:	8e 93       	st	-X, r24
     afc:	17 97       	sbiw	r26, 0x07	; 7
     afe:	8f 70       	andi	r24, 0x0F	; 15
     b00:	99 27       	eor	r25, r25
     b02:	89 2b       	or	r24, r25
     b04:	09 f0       	breq	.+2      	; 0xb08 <mount_volume+0x174>
     b06:	8d c1       	rjmp	.+794    	; 0xe22 <mount_volume+0x48e>
     b08:	cd 01       	movw	r24, r26
     b0a:	8e 5b       	subi	r24, 0xBE	; 190
     b0c:	9f 4f       	sbci	r25, 0xFF	; 255
     b0e:	0c db       	rcall	.-2536   	; 0x128 <ld_word>
     b10:	6c 01       	movw	r12, r24
     b12:	e1 2c       	mov	r14, r1
     b14:	f1 2c       	mov	r15, r1
     b16:	c1 14       	cp	r12, r1
     b18:	d1 04       	cpc	r13, r1
     b1a:	e1 04       	cpc	r14, r1
     b1c:	f1 04       	cpc	r15, r1
     b1e:	39 f4       	brne	.+14     	; 0xb2e <mount_volume+0x19a>
     b20:	8d 85       	ldd	r24, Y+13	; 0x0d
     b22:	9e 85       	ldd	r25, Y+14	; 0x0e
     b24:	81 5b       	subi	r24, 0xB1	; 177
     b26:	9f 4f       	sbci	r25, 0xFF	; 255
     b28:	09 db       	rcall	.-2542   	; 0x13c <ld_dword>
     b2a:	6b 01       	movw	r12, r22
     b2c:	7c 01       	movw	r14, r24
     b2e:	8d 85       	ldd	r24, Y+13	; 0x0d
     b30:	9e 85       	ldd	r25, Y+14	; 0x0e
     b32:	cd 96       	adiw	r24, 0x3d	; 61
     b34:	f9 da       	rcall	.-2574   	; 0x128 <ld_word>
     b36:	00 97       	sbiw	r24, 0x00	; 0
     b38:	09 f4       	brne	.+2      	; 0xb3c <mount_volume+0x1a8>
     b3a:	75 c1       	rjmp	.+746    	; 0xe26 <mount_volume+0x492>
     b3c:	9c 01       	movw	r18, r24
     b3e:	40 e0       	ldi	r20, 0x00	; 0
     b40:	50 e0       	ldi	r21, 0x00	; 0
     b42:	29 87       	std	Y+9, r18	; 0x09
     b44:	3a 87       	std	Y+10, r19	; 0x0a
     b46:	4b 87       	std	Y+11, r20	; 0x0b
     b48:	5c 87       	std	Y+12, r21	; 0x0c
     b4a:	8d 81       	ldd	r24, Y+5	; 0x05
     b4c:	9e 81       	ldd	r25, Y+6	; 0x06
     b4e:	af 81       	ldd	r26, Y+7	; 0x07
     b50:	b8 85       	ldd	r27, Y+8	; 0x08
     b52:	82 0f       	add	r24, r18
     b54:	93 1f       	adc	r25, r19
     b56:	a4 1f       	adc	r26, r20
     b58:	b5 1f       	adc	r27, r21
     b5a:	91 01       	movw	r18, r2
     b5c:	32 95       	swap	r19
     b5e:	22 95       	swap	r18
     b60:	2f 70       	andi	r18, 0x0F	; 15
     b62:	23 27       	eor	r18, r19
     b64:	3f 70       	andi	r19, 0x0F	; 15
     b66:	23 27       	eor	r18, r19
     b68:	ac 01       	movw	r20, r24
     b6a:	bd 01       	movw	r22, r26
     b6c:	42 0f       	add	r20, r18
     b6e:	53 1f       	adc	r21, r19
     b70:	61 1d       	adc	r22, r1
     b72:	71 1d       	adc	r23, r1
     b74:	49 83       	std	Y+1, r20	; 0x01
     b76:	5a 83       	std	Y+2, r21	; 0x02
     b78:	6b 83       	std	Y+3, r22	; 0x03
     b7a:	7c 83       	std	Y+4, r23	; 0x04
     b7c:	c4 16       	cp	r12, r20
     b7e:	d5 06       	cpc	r13, r21
     b80:	e6 06       	cpc	r14, r22
     b82:	f7 06       	cpc	r15, r23
     b84:	08 f4       	brcc	.+2      	; 0xb88 <mount_volume+0x1f4>
     b86:	51 c1       	rjmp	.+674    	; 0xe2a <mount_volume+0x496>
     b88:	c7 01       	movw	r24, r14
     b8a:	b6 01       	movw	r22, r12
     b8c:	29 81       	ldd	r18, Y+1	; 0x01
     b8e:	3a 81       	ldd	r19, Y+2	; 0x02
     b90:	4b 81       	ldd	r20, Y+3	; 0x03
     b92:	5c 81       	ldd	r21, Y+4	; 0x04
     b94:	62 1b       	sub	r22, r18
     b96:	73 0b       	sbc	r23, r19
     b98:	84 0b       	sbc	r24, r20
     b9a:	95 0b       	sbc	r25, r21
     b9c:	98 01       	movw	r18, r16
     b9e:	40 e0       	ldi	r20, 0x00	; 0
     ba0:	50 e0       	ldi	r21, 0x00	; 0
     ba2:	0e 94 65 1d 	call	0x3aca	; 0x3aca <__udivmodsi4>
     ba6:	da 01       	movw	r26, r20
     ba8:	c9 01       	movw	r24, r18
     baa:	21 15       	cp	r18, r1
     bac:	31 05       	cpc	r19, r1
     bae:	41 05       	cpc	r20, r1
     bb0:	51 05       	cpc	r21, r1
     bb2:	09 f4       	brne	.+2      	; 0xbb6 <mount_volume+0x222>
     bb4:	3c c1       	rjmp	.+632    	; 0xe2e <mount_volume+0x49a>
     bb6:	26 3f       	cpi	r18, 0xF6	; 246
     bb8:	6f ef       	ldi	r22, 0xFF	; 255
     bba:	36 07       	cpc	r19, r22
     bbc:	46 07       	cpc	r20, r22
     bbe:	6f e0       	ldi	r22, 0x0F	; 15
     bc0:	56 07       	cpc	r21, r22
     bc2:	18 f0       	brcs	.+6      	; 0xbca <mount_volume+0x236>
     bc4:	00 e0       	ldi	r16, 0x00	; 0
     bc6:	10 e0       	ldi	r17, 0x00	; 0
     bc8:	02 c0       	rjmp	.+4      	; 0xbce <mount_volume+0x23a>
     bca:	03 e0       	ldi	r16, 0x03	; 3
     bcc:	10 e0       	ldi	r17, 0x00	; 0
     bce:	86 3f       	cpi	r24, 0xF6	; 246
     bd0:	7f ef       	ldi	r23, 0xFF	; 255
     bd2:	97 07       	cpc	r25, r23
     bd4:	a1 05       	cpc	r26, r1
     bd6:	b1 05       	cpc	r27, r1
     bd8:	10 f4       	brcc	.+4      	; 0xbde <mount_volume+0x24a>
     bda:	02 e0       	ldi	r16, 0x02	; 2
     bdc:	10 e0       	ldi	r17, 0x00	; 0
     bde:	86 3f       	cpi	r24, 0xF6	; 246
     be0:	9f 40       	sbci	r25, 0x0F	; 15
     be2:	a1 05       	cpc	r26, r1
     be4:	b1 05       	cpc	r27, r1
     be6:	10 f4       	brcc	.+4      	; 0xbec <mount_volume+0x258>
     be8:	01 e0       	ldi	r16, 0x01	; 1
     bea:	10 e0       	ldi	r17, 0x00	; 0
     bec:	01 15       	cp	r16, r1
     bee:	11 05       	cpc	r17, r1
     bf0:	09 f4       	brne	.+2      	; 0xbf4 <mount_volume+0x260>
     bf2:	1f c1       	rjmp	.+574    	; 0xe32 <mount_volume+0x49e>
     bf4:	69 01       	movw	r12, r18
     bf6:	7a 01       	movw	r14, r20
     bf8:	f2 e0       	ldi	r31, 0x02	; 2
     bfa:	cf 0e       	add	r12, r31
     bfc:	d1 1c       	adc	r13, r1
     bfe:	e1 1c       	adc	r14, r1
     c00:	f1 1c       	adc	r15, r1
     c02:	ad 85       	ldd	r26, Y+13	; 0x0d
     c04:	be 85       	ldd	r27, Y+14	; 0x0e
     c06:	53 96       	adiw	r26, 0x13	; 19
     c08:	cd 92       	st	X+, r12
     c0a:	dd 92       	st	X+, r13
     c0c:	ed 92       	st	X+, r14
     c0e:	fc 92       	st	X, r15
     c10:	56 97       	sbiw	r26, 0x16	; 22
     c12:	fd 01       	movw	r30, r26
     c14:	43 8e       	std	Z+27, r4	; 0x1b
     c16:	54 8e       	std	Z+28, r5	; 0x1c
     c18:	65 8e       	std	Z+29, r6	; 0x1d
     c1a:	76 8e       	std	Z+30, r7	; 0x1e
     c1c:	89 85       	ldd	r24, Y+9	; 0x09
     c1e:	9a 85       	ldd	r25, Y+10	; 0x0a
     c20:	ab 85       	ldd	r26, Y+11	; 0x0b
     c22:	bc 85       	ldd	r27, Y+12	; 0x0c
     c24:	84 0d       	add	r24, r4
     c26:	95 1d       	adc	r25, r5
     c28:	a6 1d       	adc	r26, r6
     c2a:	b7 1d       	adc	r27, r7
     c2c:	87 8f       	std	Z+31, r24	; 0x1f
     c2e:	90 a3       	std	Z+32, r25	; 0x20
     c30:	a1 a3       	std	Z+33, r26	; 0x21
     c32:	b2 a3       	std	Z+34, r27	; 0x22
     c34:	49 81       	ldd	r20, Y+1	; 0x01
     c36:	5a 81       	ldd	r21, Y+2	; 0x02
     c38:	6b 81       	ldd	r22, Y+3	; 0x03
     c3a:	7c 81       	ldd	r23, Y+4	; 0x04
     c3c:	44 0d       	add	r20, r4
     c3e:	55 1d       	adc	r21, r5
     c40:	66 1d       	adc	r22, r6
     c42:	77 1d       	adc	r23, r7
     c44:	47 a3       	std	Z+39, r20	; 0x27
     c46:	50 a7       	std	Z+40, r21	; 0x28
     c48:	61 a7       	std	Z+41, r22	; 0x29
     c4a:	72 a7       	std	Z+42, r23	; 0x2a
     c4c:	03 30       	cpi	r16, 0x03	; 3
     c4e:	11 05       	cpc	r17, r1
     c50:	01 f5       	brne	.+64     	; 0xc92 <mount_volume+0x2fe>
     c52:	cf 01       	movw	r24, r30
     c54:	87 5a       	subi	r24, 0xA7	; 167
     c56:	9f 4f       	sbci	r25, 0xFF	; 255
     c58:	67 da       	rcall	.-2866   	; 0x128 <ld_word>
     c5a:	89 2b       	or	r24, r25
     c5c:	09 f0       	breq	.+2      	; 0xc60 <mount_volume+0x2cc>
     c5e:	eb c0       	rjmp	.+470    	; 0xe36 <mount_volume+0x4a2>
     c60:	23 28       	or	r2, r3
     c62:	09 f0       	breq	.+2      	; 0xc66 <mount_volume+0x2d2>
     c64:	ea c0       	rjmp	.+468    	; 0xe3a <mount_volume+0x4a6>
     c66:	8d 85       	ldd	r24, Y+13	; 0x0d
     c68:	9e 85       	ldd	r25, Y+14	; 0x0e
     c6a:	85 5a       	subi	r24, 0xA5	; 165
     c6c:	9f 4f       	sbci	r25, 0xFF	; 255
     c6e:	66 da       	rcall	.-2868   	; 0x13c <ld_dword>
     c70:	ad 85       	ldd	r26, Y+13	; 0x0d
     c72:	be 85       	ldd	r27, Y+14	; 0x0e
     c74:	93 96       	adiw	r26, 0x23	; 35
     c76:	6d 93       	st	X+, r22
     c78:	7d 93       	st	X+, r23
     c7a:	8d 93       	st	X+, r24
     c7c:	9c 93       	st	X, r25
     c7e:	96 97       	sbiw	r26, 0x26	; 38
     c80:	cc 0c       	add	r12, r12
     c82:	dd 1c       	adc	r13, r13
     c84:	ee 1c       	adc	r14, r14
     c86:	ff 1c       	adc	r15, r15
     c88:	cc 0c       	add	r12, r12
     c8a:	dd 1c       	adc	r13, r13
     c8c:	ee 1c       	adc	r14, r14
     c8e:	ff 1c       	adc	r15, r15
     c90:	2e c0       	rjmp	.+92     	; 0xcee <mount_volume+0x35a>
     c92:	23 28       	or	r2, r3
     c94:	09 f4       	brne	.+2      	; 0xc98 <mount_volume+0x304>
     c96:	d3 c0       	rjmp	.+422    	; 0xe3e <mount_volume+0x4aa>
     c98:	2d 81       	ldd	r18, Y+5	; 0x05
     c9a:	3e 81       	ldd	r19, Y+6	; 0x06
     c9c:	4f 81       	ldd	r20, Y+7	; 0x07
     c9e:	58 85       	ldd	r21, Y+8	; 0x08
     ca0:	82 0f       	add	r24, r18
     ca2:	93 1f       	adc	r25, r19
     ca4:	a4 1f       	adc	r26, r20
     ca6:	b5 1f       	adc	r27, r21
     ca8:	ed 85       	ldd	r30, Y+13	; 0x0d
     caa:	fe 85       	ldd	r31, Y+14	; 0x0e
     cac:	83 a3       	std	Z+35, r24	; 0x23
     cae:	94 a3       	std	Z+36, r25	; 0x24
     cb0:	a5 a3       	std	Z+37, r26	; 0x25
     cb2:	b6 a3       	std	Z+38, r27	; 0x26
     cb4:	02 30       	cpi	r16, 0x02	; 2
     cb6:	11 05       	cpc	r17, r1
     cb8:	29 f4       	brne	.+10     	; 0xcc4 <mount_volume+0x330>
     cba:	cc 0c       	add	r12, r12
     cbc:	dd 1c       	adc	r13, r13
     cbe:	ee 1c       	adc	r14, r14
     cc0:	ff 1c       	adc	r15, r15
     cc2:	15 c0       	rjmp	.+42     	; 0xcee <mount_volume+0x35a>
     cc4:	a3 e0       	ldi	r26, 0x03	; 3
     cc6:	b0 e0       	ldi	r27, 0x00	; 0
     cc8:	a7 01       	movw	r20, r14
     cca:	96 01       	movw	r18, r12
     ccc:	0e 94 a2 1d 	call	0x3b44	; 0x3b44 <__muluhisi3>
     cd0:	dc 01       	movw	r26, r24
     cd2:	cb 01       	movw	r24, r22
     cd4:	b6 95       	lsr	r27
     cd6:	a7 95       	ror	r26
     cd8:	97 95       	ror	r25
     cda:	87 95       	ror	r24
     cdc:	f1 e0       	ldi	r31, 0x01	; 1
     cde:	cf 22       	and	r12, r31
     ce0:	dd 24       	eor	r13, r13
     ce2:	ee 24       	eor	r14, r14
     ce4:	ff 24       	eor	r15, r15
     ce6:	c8 0e       	add	r12, r24
     ce8:	d9 1e       	adc	r13, r25
     cea:	ea 1e       	adc	r14, r26
     cec:	fb 1e       	adc	r15, r27
     cee:	2f ef       	ldi	r18, 0xFF	; 255
     cf0:	c2 0e       	add	r12, r18
     cf2:	21 e0       	ldi	r18, 0x01	; 1
     cf4:	d2 1e       	adc	r13, r18
     cf6:	e1 1c       	adc	r14, r1
     cf8:	f1 1c       	adc	r15, r1
     cfa:	0b 2e       	mov	r0, r27
     cfc:	b9 e0       	ldi	r27, 0x09	; 9
     cfe:	f6 94       	lsr	r15
     d00:	e7 94       	ror	r14
     d02:	d7 94       	ror	r13
     d04:	c7 94       	ror	r12
     d06:	ba 95       	dec	r27
     d08:	d1 f7       	brne	.-12     	; 0xcfe <mount_volume+0x36a>
     d0a:	b0 2d       	mov	r27, r0
     d0c:	8c 14       	cp	r8, r12
     d0e:	9d 04       	cpc	r9, r13
     d10:	ae 04       	cpc	r10, r14
     d12:	bf 04       	cpc	r11, r15
     d14:	08 f4       	brcc	.+2      	; 0xd18 <mount_volume+0x384>
     d16:	95 c0       	rjmp	.+298    	; 0xe42 <mount_volume+0x4ae>
     d18:	8f ef       	ldi	r24, 0xFF	; 255
     d1a:	9f ef       	ldi	r25, 0xFF	; 255
     d1c:	dc 01       	movw	r26, r24
     d1e:	ed 85       	ldd	r30, Y+13	; 0x0d
     d20:	fe 85       	ldd	r31, Y+14	; 0x0e
     d22:	87 87       	std	Z+15, r24	; 0x0f
     d24:	90 8b       	std	Z+16, r25	; 0x10
     d26:	a1 8b       	std	Z+17, r26	; 0x11
     d28:	b2 8b       	std	Z+18, r27	; 0x12
     d2a:	83 87       	std	Z+11, r24	; 0x0b
     d2c:	94 87       	std	Z+12, r25	; 0x0c
     d2e:	a5 87       	std	Z+13, r26	; 0x0d
     d30:	b6 87       	std	Z+14, r27	; 0x0e
     d32:	80 e8       	ldi	r24, 0x80	; 128
     d34:	84 83       	std	Z+4, r24	; 0x04
     d36:	03 30       	cpi	r16, 0x03	; 3
     d38:	11 05       	cpc	r17, r1
     d3a:	09 f0       	breq	.+2      	; 0xd3e <mount_volume+0x3aa>
     d3c:	48 c0       	rjmp	.+144    	; 0xdce <mount_volume+0x43a>
     d3e:	cf 01       	movw	r24, r30
     d40:	81 5a       	subi	r24, 0xA1	; 161
     d42:	9f 4f       	sbci	r25, 0xFF	; 255
     d44:	f1 d9       	rcall	.-3102   	; 0x128 <ld_word>
     d46:	01 97       	sbiw	r24, 0x01	; 1
     d48:	09 f0       	breq	.+2      	; 0xd4c <mount_volume+0x3b8>
     d4a:	41 c0       	rjmp	.+130    	; 0xdce <mount_volume+0x43a>
     d4c:	b3 01       	movw	r22, r6
     d4e:	a2 01       	movw	r20, r4
     d50:	4f 5f       	subi	r20, 0xFF	; 255
     d52:	5f 4f       	sbci	r21, 0xFF	; 255
     d54:	6f 4f       	sbci	r22, 0xFF	; 255
     d56:	7f 4f       	sbci	r23, 0xFF	; 255
     d58:	8d 85       	ldd	r24, Y+13	; 0x0d
     d5a:	9e 85       	ldd	r25, Y+14	; 0x0e
     d5c:	e6 dc       	rcall	.-1588   	; 0x72a <move_window>
     d5e:	81 11       	cpse	r24, r1
     d60:	36 c0       	rjmp	.+108    	; 0xdce <mount_volume+0x43a>
     d62:	ad 85       	ldd	r26, Y+13	; 0x0d
     d64:	be 85       	ldd	r27, Y+14	; 0x0e
     d66:	14 96       	adiw	r26, 0x04	; 4
     d68:	1c 92       	st	X, r1
     d6a:	14 97       	sbiw	r26, 0x04	; 4
     d6c:	cd 01       	movw	r24, r26
     d6e:	83 5d       	subi	r24, 0xD3	; 211
     d70:	9d 4f       	sbci	r25, 0xFD	; 253
     d72:	da d9       	rcall	.-3148   	; 0x128 <ld_word>
     d74:	85 35       	cpi	r24, 0x55	; 85
     d76:	9a 4a       	sbci	r25, 0xAA	; 170
     d78:	51 f5       	brne	.+84     	; 0xdce <mount_volume+0x43a>
     d7a:	8d 85       	ldd	r24, Y+13	; 0x0d
     d7c:	9e 85       	ldd	r25, Y+14	; 0x0e
     d7e:	8f 96       	adiw	r24, 0x2f	; 47
     d80:	dd d9       	rcall	.-3142   	; 0x13c <ld_dword>
     d82:	62 35       	cpi	r22, 0x52	; 82
     d84:	72 45       	sbci	r23, 0x52	; 82
     d86:	81 46       	sbci	r24, 0x61	; 97
     d88:	91 44       	sbci	r25, 0x41	; 65
     d8a:	09 f5       	brne	.+66     	; 0xdce <mount_volume+0x43a>
     d8c:	8d 85       	ldd	r24, Y+13	; 0x0d
     d8e:	9e 85       	ldd	r25, Y+14	; 0x0e
     d90:	8d 5e       	subi	r24, 0xED	; 237
     d92:	9d 4f       	sbci	r25, 0xFD	; 253
     d94:	d3 d9       	rcall	.-3162   	; 0x13c <ld_dword>
     d96:	62 37       	cpi	r22, 0x72	; 114
     d98:	72 47       	sbci	r23, 0x72	; 114
     d9a:	81 44       	sbci	r24, 0x41	; 65
     d9c:	91 46       	sbci	r25, 0x61	; 97
     d9e:	b9 f4       	brne	.+46     	; 0xdce <mount_volume+0x43a>
     da0:	8d 85       	ldd	r24, Y+13	; 0x0d
     da2:	9e 85       	ldd	r25, Y+14	; 0x0e
     da4:	89 5e       	subi	r24, 0xE9	; 233
     da6:	9d 4f       	sbci	r25, 0xFD	; 253
     da8:	c9 d9       	rcall	.-3182   	; 0x13c <ld_dword>
     daa:	ad 85       	ldd	r26, Y+13	; 0x0d
     dac:	be 85       	ldd	r27, Y+14	; 0x0e
     dae:	1f 96       	adiw	r26, 0x0f	; 15
     db0:	6d 93       	st	X+, r22
     db2:	7d 93       	st	X+, r23
     db4:	8d 93       	st	X+, r24
     db6:	9c 93       	st	X, r25
     db8:	52 97       	sbiw	r26, 0x12	; 18
     dba:	cd 01       	movw	r24, r26
     dbc:	85 5e       	subi	r24, 0xE5	; 229
     dbe:	9d 4f       	sbci	r25, 0xFD	; 253
     dc0:	bd d9       	rcall	.-3206   	; 0x13c <ld_dword>
     dc2:	ed 85       	ldd	r30, Y+13	; 0x0d
     dc4:	fe 85       	ldd	r31, Y+14	; 0x0e
     dc6:	63 87       	std	Z+11, r22	; 0x0b
     dc8:	74 87       	std	Z+12, r23	; 0x0c
     dca:	85 87       	std	Z+13, r24	; 0x0d
     dcc:	96 87       	std	Z+14, r25	; 0x0e
     dce:	ad 85       	ldd	r26, Y+13	; 0x0d
     dd0:	be 85       	ldd	r27, Y+14	; 0x0e
     dd2:	0c 93       	st	X, r16
     dd4:	80 91 3a 02 	lds	r24, 0x023A	; 0x80023a <__data_end>
     dd8:	90 91 3b 02 	lds	r25, 0x023B	; 0x80023b <__data_end+0x1>
     ddc:	01 96       	adiw	r24, 0x01	; 1
     dde:	90 93 3b 02 	sts	0x023B, r25	; 0x80023b <__data_end+0x1>
     de2:	80 93 3a 02 	sts	0x023A, r24	; 0x80023a <__data_end>
     de6:	16 96       	adiw	r26, 0x06	; 6
     de8:	9c 93       	st	X, r25
     dea:	8e 93       	st	-X, r24
     dec:	15 97       	sbiw	r26, 0x05	; 5
     dee:	80 e0       	ldi	r24, 0x00	; 0
     df0:	29 c0       	rjmp	.+82     	; 0xe44 <mount_volume+0x4b0>
     df2:	8b e0       	ldi	r24, 0x0B	; 11
     df4:	27 c0       	rjmp	.+78     	; 0xe44 <mount_volume+0x4b0>
     df6:	8c e0       	ldi	r24, 0x0C	; 12
     df8:	25 c0       	rjmp	.+74     	; 0xe44 <mount_volume+0x4b0>
     dfa:	80 e0       	ldi	r24, 0x00	; 0
     dfc:	23 c0       	rjmp	.+70     	; 0xe44 <mount_volume+0x4b0>
     dfe:	8a e0       	ldi	r24, 0x0A	; 10
     e00:	21 c0       	rjmp	.+66     	; 0xe44 <mount_volume+0x4b0>
     e02:	83 e0       	ldi	r24, 0x03	; 3
     e04:	1f c0       	rjmp	.+62     	; 0xe44 <mount_volume+0x4b0>
     e06:	8a e0       	ldi	r24, 0x0A	; 10
     e08:	1d c0       	rjmp	.+58     	; 0xe44 <mount_volume+0x4b0>
     e0a:	81 e0       	ldi	r24, 0x01	; 1
     e0c:	1b c0       	rjmp	.+54     	; 0xe44 <mount_volume+0x4b0>
     e0e:	8d e0       	ldi	r24, 0x0D	; 13
     e10:	19 c0       	rjmp	.+50     	; 0xe44 <mount_volume+0x4b0>
     e12:	8d e0       	ldi	r24, 0x0D	; 13
     e14:	17 c0       	rjmp	.+46     	; 0xe44 <mount_volume+0x4b0>
     e16:	8d e0       	ldi	r24, 0x0D	; 13
     e18:	15 c0       	rjmp	.+42     	; 0xe44 <mount_volume+0x4b0>
     e1a:	8d e0       	ldi	r24, 0x0D	; 13
     e1c:	13 c0       	rjmp	.+38     	; 0xe44 <mount_volume+0x4b0>
     e1e:	8d e0       	ldi	r24, 0x0D	; 13
     e20:	11 c0       	rjmp	.+34     	; 0xe44 <mount_volume+0x4b0>
     e22:	8d e0       	ldi	r24, 0x0D	; 13
     e24:	0f c0       	rjmp	.+30     	; 0xe44 <mount_volume+0x4b0>
     e26:	8d e0       	ldi	r24, 0x0D	; 13
     e28:	0d c0       	rjmp	.+26     	; 0xe44 <mount_volume+0x4b0>
     e2a:	8d e0       	ldi	r24, 0x0D	; 13
     e2c:	0b c0       	rjmp	.+22     	; 0xe44 <mount_volume+0x4b0>
     e2e:	8d e0       	ldi	r24, 0x0D	; 13
     e30:	09 c0       	rjmp	.+18     	; 0xe44 <mount_volume+0x4b0>
     e32:	8d e0       	ldi	r24, 0x0D	; 13
     e34:	07 c0       	rjmp	.+14     	; 0xe44 <mount_volume+0x4b0>
     e36:	8d e0       	ldi	r24, 0x0D	; 13
     e38:	05 c0       	rjmp	.+10     	; 0xe44 <mount_volume+0x4b0>
     e3a:	8d e0       	ldi	r24, 0x0D	; 13
     e3c:	03 c0       	rjmp	.+6      	; 0xe44 <mount_volume+0x4b0>
     e3e:	8d e0       	ldi	r24, 0x0D	; 13
     e40:	01 c0       	rjmp	.+2      	; 0xe44 <mount_volume+0x4b0>
     e42:	8d e0       	ldi	r24, 0x0D	; 13
     e44:	2e 96       	adiw	r28, 0x0e	; 14
     e46:	0f b6       	in	r0, 0x3f	; 63
     e48:	f8 94       	cli
     e4a:	de bf       	out	0x3e, r29	; 62
     e4c:	0f be       	out	0x3f, r0	; 63
     e4e:	cd bf       	out	0x3d, r28	; 61
     e50:	df 91       	pop	r29
     e52:	cf 91       	pop	r28
     e54:	1f 91       	pop	r17
     e56:	0f 91       	pop	r16
     e58:	ff 90       	pop	r15
     e5a:	ef 90       	pop	r14
     e5c:	df 90       	pop	r13
     e5e:	cf 90       	pop	r12
     e60:	bf 90       	pop	r11
     e62:	af 90       	pop	r10
     e64:	9f 90       	pop	r9
     e66:	8f 90       	pop	r8
     e68:	7f 90       	pop	r7
     e6a:	6f 90       	pop	r6
     e6c:	5f 90       	pop	r5
     e6e:	4f 90       	pop	r4
     e70:	3f 90       	pop	r3
     e72:	2f 90       	pop	r2
     e74:	08 95       	ret

00000e76 <put_fat>:
     e76:	2f 92       	push	r2
     e78:	3f 92       	push	r3
     e7a:	4f 92       	push	r4
     e7c:	5f 92       	push	r5
     e7e:	6f 92       	push	r6
     e80:	7f 92       	push	r7
     e82:	8f 92       	push	r8
     e84:	9f 92       	push	r9
     e86:	af 92       	push	r10
     e88:	bf 92       	push	r11
     e8a:	cf 92       	push	r12
     e8c:	df 92       	push	r13
     e8e:	ef 92       	push	r14
     e90:	ff 92       	push	r15
     e92:	0f 93       	push	r16
     e94:	1f 93       	push	r17
     e96:	cf 93       	push	r28
     e98:	df 93       	push	r29
     e9a:	00 d0       	rcall	.+0      	; 0xe9c <put_fat+0x26>
     e9c:	1f 92       	push	r1
     e9e:	cd b7       	in	r28, 0x3d	; 61
     ea0:	de b7       	in	r29, 0x3e	; 62
     ea2:	42 30       	cpi	r20, 0x02	; 2
     ea4:	51 05       	cpc	r21, r1
     ea6:	61 05       	cpc	r22, r1
     ea8:	71 05       	cpc	r23, r1
     eaa:	08 f4       	brcc	.+2      	; 0xeae <put_fat+0x38>
     eac:	ea c0       	rjmp	.+468    	; 0x1082 <__EEPROM_REGION_LENGTH__+0x82>
     eae:	fc 01       	movw	r30, r24
     eb0:	c3 88       	ldd	r12, Z+19	; 0x13
     eb2:	d4 88       	ldd	r13, Z+20	; 0x14
     eb4:	e5 88       	ldd	r14, Z+21	; 0x15
     eb6:	f6 88       	ldd	r15, Z+22	; 0x16
     eb8:	4c 15       	cp	r20, r12
     eba:	5d 05       	cpc	r21, r13
     ebc:	6e 05       	cpc	r22, r14
     ebe:	7f 05       	cpc	r23, r15
     ec0:	08 f0       	brcs	.+2      	; 0xec4 <put_fat+0x4e>
     ec2:	e1 c0       	rjmp	.+450    	; 0x1086 <__EEPROM_REGION_LENGTH__+0x86>
     ec4:	28 01       	movw	r4, r16
     ec6:	39 01       	movw	r6, r18
     ec8:	6a 01       	movw	r12, r20
     eca:	7b 01       	movw	r14, r22
     ecc:	9c 83       	std	Y+4, r25	; 0x04
     ece:	8b 83       	std	Y+3, r24	; 0x03
     ed0:	80 81       	ld	r24, Z
     ed2:	82 30       	cpi	r24, 0x02	; 2
     ed4:	09 f4       	brne	.+2      	; 0xed8 <put_fat+0x62>
     ed6:	73 c0       	rjmp	.+230    	; 0xfbe <put_fat+0x148>
     ed8:	83 30       	cpi	r24, 0x03	; 3
     eda:	09 f4       	brne	.+2      	; 0xede <put_fat+0x68>
     edc:	95 c0       	rjmp	.+298    	; 0x1008 <__EEPROM_REGION_LENGTH__+0x8>
     ede:	81 30       	cpi	r24, 0x01	; 1
     ee0:	09 f0       	breq	.+2      	; 0xee4 <put_fat+0x6e>
     ee2:	d3 c0       	rjmp	.+422    	; 0x108a <__EEPROM_REGION_LENGTH__+0x8a>
     ee4:	5a 01       	movw	r10, r20
     ee6:	b6 94       	lsr	r11
     ee8:	a7 94       	ror	r10
     eea:	a4 0e       	add	r10, r20
     eec:	b5 1e       	adc	r11, r21
     eee:	47 8d       	ldd	r20, Z+31	; 0x1f
     ef0:	50 a1       	ldd	r21, Z+32	; 0x20
     ef2:	61 a1       	ldd	r22, Z+33	; 0x21
     ef4:	72 a1       	ldd	r23, Z+34	; 0x22
     ef6:	c5 01       	movw	r24, r10
     ef8:	89 2f       	mov	r24, r25
     efa:	99 27       	eor	r25, r25
     efc:	86 95       	lsr	r24
     efe:	48 0f       	add	r20, r24
     f00:	59 1f       	adc	r21, r25
     f02:	61 1d       	adc	r22, r1
     f04:	71 1d       	adc	r23, r1
     f06:	cf 01       	movw	r24, r30
     f08:	10 dc       	rcall	.-2016   	; 0x72a <move_window>
     f0a:	18 2f       	mov	r17, r24
     f0c:	81 11       	cpse	r24, r1
     f0e:	be c0       	rjmp	.+380    	; 0x108c <__EEPROM_REGION_LENGTH__+0x8c>
     f10:	2b 81       	ldd	r18, Y+3	; 0x03
     f12:	3c 81       	ldd	r19, Y+4	; 0x04
     f14:	21 5d       	subi	r18, 0xD1	; 209
     f16:	3f 4f       	sbci	r19, 0xFF	; 255
     f18:	3a 83       	std	Y+2, r19	; 0x02
     f1a:	29 83       	std	Y+1, r18	; 0x01
     f1c:	15 01       	movw	r2, r10
     f1e:	3f ef       	ldi	r19, 0xFF	; 255
     f20:	23 1a       	sub	r2, r19
     f22:	33 0a       	sbc	r3, r19
     f24:	81 e0       	ldi	r24, 0x01	; 1
     f26:	b8 22       	and	r11, r24
     f28:	e9 81       	ldd	r30, Y+1	; 0x01
     f2a:	fa 81       	ldd	r31, Y+2	; 0x02
     f2c:	ea 0d       	add	r30, r10
     f2e:	fb 1d       	adc	r31, r11
     f30:	46 01       	movw	r8, r12
     f32:	57 01       	movw	r10, r14
     f34:	91 e0       	ldi	r25, 0x01	; 1
     f36:	89 22       	and	r8, r25
     f38:	99 24       	eor	r9, r9
     f3a:	aa 24       	eor	r10, r10
     f3c:	bb 24       	eor	r11, r11
     f3e:	c0 fe       	sbrs	r12, 0
     f40:	08 c0       	rjmp	.+16     	; 0xf52 <put_fat+0xdc>
     f42:	20 81       	ld	r18, Z
     f44:	30 e1       	ldi	r19, 0x10	; 16
     f46:	43 9e       	mul	r4, r19
     f48:	c0 01       	movw	r24, r0
     f4a:	11 24       	eor	r1, r1
     f4c:	2f 70       	andi	r18, 0x0F	; 15
     f4e:	82 2b       	or	r24, r18
     f50:	01 c0       	rjmp	.+2      	; 0xf54 <put_fat+0xde>
     f52:	84 2d       	mov	r24, r4
     f54:	80 83       	st	Z, r24
     f56:	81 e0       	ldi	r24, 0x01	; 1
     f58:	eb 81       	ldd	r30, Y+3	; 0x03
     f5a:	fc 81       	ldd	r31, Y+4	; 0x04
     f5c:	83 83       	std	Z+3, r24	; 0x03
     f5e:	47 8d       	ldd	r20, Z+31	; 0x1f
     f60:	50 a1       	ldd	r21, Z+32	; 0x20
     f62:	61 a1       	ldd	r22, Z+33	; 0x21
     f64:	72 a1       	ldd	r23, Z+34	; 0x22
     f66:	c1 01       	movw	r24, r2
     f68:	89 2f       	mov	r24, r25
     f6a:	99 27       	eor	r25, r25
     f6c:	86 95       	lsr	r24
     f6e:	48 0f       	add	r20, r24
     f70:	59 1f       	adc	r21, r25
     f72:	61 1d       	adc	r22, r1
     f74:	71 1d       	adc	r23, r1
     f76:	cf 01       	movw	r24, r30
     f78:	d8 db       	rcall	.-2128   	; 0x72a <move_window>
     f7a:	18 2f       	mov	r17, r24
     f7c:	81 11       	cpse	r24, r1
     f7e:	86 c0       	rjmp	.+268    	; 0x108c <__EEPROM_REGION_LENGTH__+0x8c>
     f80:	f1 e0       	ldi	r31, 0x01	; 1
     f82:	3f 22       	and	r3, r31
     f84:	e9 81       	ldd	r30, Y+1	; 0x01
     f86:	fa 81       	ldd	r31, Y+2	; 0x02
     f88:	e2 0d       	add	r30, r2
     f8a:	f3 1d       	adc	r31, r3
     f8c:	89 28       	or	r8, r9
     f8e:	8a 28       	or	r8, r10
     f90:	8b 28       	or	r8, r11
     f92:	49 f0       	breq	.+18     	; 0xfa6 <put_fat+0x130>
     f94:	68 94       	set
     f96:	13 f8       	bld	r1, 3
     f98:	76 94       	lsr	r7
     f9a:	67 94       	ror	r6
     f9c:	57 94       	ror	r5
     f9e:	47 94       	ror	r4
     fa0:	16 94       	lsr	r1
     fa2:	d1 f7       	brne	.-12     	; 0xf98 <put_fat+0x122>
     fa4:	06 c0       	rjmp	.+12     	; 0xfb2 <put_fat+0x13c>
     fa6:	90 81       	ld	r25, Z
     fa8:	90 7f       	andi	r25, 0xF0	; 240
     faa:	85 2d       	mov	r24, r5
     fac:	8f 70       	andi	r24, 0x0F	; 15
     fae:	49 2e       	mov	r4, r25
     fb0:	48 2a       	or	r4, r24
     fb2:	40 82       	st	Z, r4
     fb4:	81 e0       	ldi	r24, 0x01	; 1
     fb6:	eb 81       	ldd	r30, Y+3	; 0x03
     fb8:	fc 81       	ldd	r31, Y+4	; 0x04
     fba:	83 83       	std	Z+3, r24	; 0x03
     fbc:	67 c0       	rjmp	.+206    	; 0x108c <__EEPROM_REGION_LENGTH__+0x8c>
     fbe:	eb 81       	ldd	r30, Y+3	; 0x03
     fc0:	fc 81       	ldd	r31, Y+4	; 0x04
     fc2:	47 8d       	ldd	r20, Z+31	; 0x1f
     fc4:	50 a1       	ldd	r21, Z+32	; 0x20
     fc6:	61 a1       	ldd	r22, Z+33	; 0x21
     fc8:	72 a1       	ldd	r23, Z+34	; 0x22
     fca:	bb 27       	eor	r27, r27
     fcc:	af 2d       	mov	r26, r15
     fce:	9e 2d       	mov	r25, r14
     fd0:	8d 2d       	mov	r24, r13
     fd2:	48 0f       	add	r20, r24
     fd4:	59 1f       	adc	r21, r25
     fd6:	6a 1f       	adc	r22, r26
     fd8:	7b 1f       	adc	r23, r27
     fda:	cf 01       	movw	r24, r30
     fdc:	a6 db       	rcall	.-2228   	; 0x72a <move_window>
     fde:	18 2f       	mov	r17, r24
     fe0:	81 11       	cpse	r24, r1
     fe2:	54 c0       	rjmp	.+168    	; 0x108c <__EEPROM_REGION_LENGTH__+0x8c>
     fe4:	2b 81       	ldd	r18, Y+3	; 0x03
     fe6:	3c 81       	ldd	r19, Y+4	; 0x04
     fe8:	21 5d       	subi	r18, 0xD1	; 209
     fea:	3f 4f       	sbci	r19, 0xFF	; 255
     fec:	cc 0c       	add	r12, r12
     fee:	dd 1c       	adc	r13, r13
     ff0:	c6 01       	movw	r24, r12
     ff2:	8e 7f       	andi	r24, 0xFE	; 254
     ff4:	91 70       	andi	r25, 0x01	; 1
     ff6:	b2 01       	movw	r22, r4
     ff8:	82 0f       	add	r24, r18
     ffa:	93 1f       	adc	r25, r19
     ffc:	ba d8       	rcall	.-3724   	; 0x172 <st_word>
     ffe:	81 e0       	ldi	r24, 0x01	; 1
    1000:	eb 81       	ldd	r30, Y+3	; 0x03
    1002:	fc 81       	ldd	r31, Y+4	; 0x04
    1004:	83 83       	std	Z+3, r24	; 0x03
    1006:	42 c0       	rjmp	.+132    	; 0x108c <__EEPROM_REGION_LENGTH__+0x8c>
    1008:	eb 81       	ldd	r30, Y+3	; 0x03
    100a:	fc 81       	ldd	r31, Y+4	; 0x04
    100c:	47 8d       	ldd	r20, Z+31	; 0x1f
    100e:	50 a1       	ldd	r21, Z+32	; 0x20
    1010:	61 a1       	ldd	r22, Z+33	; 0x21
    1012:	72 a1       	ldd	r23, Z+34	; 0x22
    1014:	d7 01       	movw	r26, r14
    1016:	c6 01       	movw	r24, r12
    1018:	68 94       	set
    101a:	16 f8       	bld	r1, 6
    101c:	b6 95       	lsr	r27
    101e:	a7 95       	ror	r26
    1020:	97 95       	ror	r25
    1022:	87 95       	ror	r24
    1024:	16 94       	lsr	r1
    1026:	d1 f7       	brne	.-12     	; 0x101c <__EEPROM_REGION_LENGTH__+0x1c>
    1028:	48 0f       	add	r20, r24
    102a:	59 1f       	adc	r21, r25
    102c:	6a 1f       	adc	r22, r26
    102e:	7b 1f       	adc	r23, r27
    1030:	cf 01       	movw	r24, r30
    1032:	7b db       	rcall	.-2314   	; 0x72a <move_window>
    1034:	18 2f       	mov	r17, r24
    1036:	81 11       	cpse	r24, r1
    1038:	29 c0       	rjmp	.+82     	; 0x108c <__EEPROM_REGION_LENGTH__+0x8c>
    103a:	ff e0       	ldi	r31, 0x0F	; 15
    103c:	7f 22       	and	r7, r31
    103e:	8b 81       	ldd	r24, Y+3	; 0x03
    1040:	9c 81       	ldd	r25, Y+4	; 0x04
    1042:	8f 96       	adiw	r24, 0x2f	; 47
    1044:	cc 0c       	add	r12, r12
    1046:	dd 1c       	adc	r13, r13
    1048:	cc 0c       	add	r12, r12
    104a:	dd 1c       	adc	r13, r13
    104c:	2c ef       	ldi	r18, 0xFC	; 252
    104e:	c2 22       	and	r12, r18
    1050:	21 e0       	ldi	r18, 0x01	; 1
    1052:	d2 22       	and	r13, r18
    1054:	c8 0e       	add	r12, r24
    1056:	d9 1e       	adc	r13, r25
    1058:	c6 01       	movw	r24, r12
    105a:	70 d8       	rcall	.-3872   	; 0x13c <ld_dword>
    105c:	dc 01       	movw	r26, r24
    105e:	cb 01       	movw	r24, r22
    1060:	88 27       	eor	r24, r24
    1062:	99 27       	eor	r25, r25
    1064:	aa 27       	eor	r26, r26
    1066:	b0 7f       	andi	r27, 0xF0	; 240
    1068:	b3 01       	movw	r22, r6
    106a:	a2 01       	movw	r20, r4
    106c:	48 2b       	or	r20, r24
    106e:	59 2b       	or	r21, r25
    1070:	6a 2b       	or	r22, r26
    1072:	7b 2b       	or	r23, r27
    1074:	c6 01       	movw	r24, r12
    1076:	81 d8       	rcall	.-3838   	; 0x17a <st_dword>
    1078:	81 e0       	ldi	r24, 0x01	; 1
    107a:	eb 81       	ldd	r30, Y+3	; 0x03
    107c:	fc 81       	ldd	r31, Y+4	; 0x04
    107e:	83 83       	std	Z+3, r24	; 0x03
    1080:	05 c0       	rjmp	.+10     	; 0x108c <__EEPROM_REGION_LENGTH__+0x8c>
    1082:	12 e0       	ldi	r17, 0x02	; 2
    1084:	03 c0       	rjmp	.+6      	; 0x108c <__EEPROM_REGION_LENGTH__+0x8c>
    1086:	12 e0       	ldi	r17, 0x02	; 2
    1088:	01 c0       	rjmp	.+2      	; 0x108c <__EEPROM_REGION_LENGTH__+0x8c>
    108a:	12 e0       	ldi	r17, 0x02	; 2
    108c:	81 2f       	mov	r24, r17
    108e:	0f 90       	pop	r0
    1090:	0f 90       	pop	r0
    1092:	0f 90       	pop	r0
    1094:	0f 90       	pop	r0
    1096:	df 91       	pop	r29
    1098:	cf 91       	pop	r28
    109a:	1f 91       	pop	r17
    109c:	0f 91       	pop	r16
    109e:	ff 90       	pop	r15
    10a0:	ef 90       	pop	r14
    10a2:	df 90       	pop	r13
    10a4:	cf 90       	pop	r12
    10a6:	bf 90       	pop	r11
    10a8:	af 90       	pop	r10
    10aa:	9f 90       	pop	r9
    10ac:	8f 90       	pop	r8
    10ae:	7f 90       	pop	r7
    10b0:	6f 90       	pop	r6
    10b2:	5f 90       	pop	r5
    10b4:	4f 90       	pop	r4
    10b6:	3f 90       	pop	r3
    10b8:	2f 90       	pop	r2
    10ba:	08 95       	ret

000010bc <get_fat>:
    10bc:	af 92       	push	r10
    10be:	bf 92       	push	r11
    10c0:	cf 92       	push	r12
    10c2:	df 92       	push	r13
    10c4:	ef 92       	push	r14
    10c6:	ff 92       	push	r15
    10c8:	0f 93       	push	r16
    10ca:	1f 93       	push	r17
    10cc:	cf 93       	push	r28
    10ce:	df 93       	push	r29
    10d0:	fc 01       	movw	r30, r24
    10d2:	c0 81       	ld	r28, Z
    10d4:	d1 81       	ldd	r29, Z+1	; 0x01
    10d6:	42 30       	cpi	r20, 0x02	; 2
    10d8:	51 05       	cpc	r21, r1
    10da:	61 05       	cpc	r22, r1
    10dc:	71 05       	cpc	r23, r1
    10de:	08 f4       	brcc	.+2      	; 0x10e2 <get_fat+0x26>
    10e0:	a2 c0       	rjmp	.+324    	; 0x1226 <get_fat+0x16a>
    10e2:	8b 89       	ldd	r24, Y+19	; 0x13
    10e4:	9c 89       	ldd	r25, Y+20	; 0x14
    10e6:	ad 89       	ldd	r26, Y+21	; 0x15
    10e8:	be 89       	ldd	r27, Y+22	; 0x16
    10ea:	48 17       	cp	r20, r24
    10ec:	59 07       	cpc	r21, r25
    10ee:	6a 07       	cpc	r22, r26
    10f0:	7b 07       	cpc	r23, r27
    10f2:	08 f0       	brcs	.+2      	; 0x10f6 <get_fat+0x3a>
    10f4:	9d c0       	rjmp	.+314    	; 0x1230 <get_fat+0x174>
    10f6:	6a 01       	movw	r12, r20
    10f8:	7b 01       	movw	r14, r22
    10fa:	88 81       	ld	r24, Y
    10fc:	82 30       	cpi	r24, 0x02	; 2
    10fe:	09 f4       	brne	.+2      	; 0x1102 <get_fat+0x46>
    1100:	4e c0       	rjmp	.+156    	; 0x119e <get_fat+0xe2>
    1102:	83 30       	cpi	r24, 0x03	; 3
    1104:	09 f4       	brne	.+2      	; 0x1108 <get_fat+0x4c>
    1106:	6a c0       	rjmp	.+212    	; 0x11dc <get_fat+0x120>
    1108:	81 30       	cpi	r24, 0x01	; 1
    110a:	09 f0       	breq	.+2      	; 0x110e <get_fat+0x52>
    110c:	96 c0       	rjmp	.+300    	; 0x123a <get_fat+0x17e>
    110e:	8a 01       	movw	r16, r20
    1110:	16 95       	lsr	r17
    1112:	07 95       	ror	r16
    1114:	04 0f       	add	r16, r20
    1116:	15 1f       	adc	r17, r21
    1118:	4f 8d       	ldd	r20, Y+31	; 0x1f
    111a:	58 a1       	ldd	r21, Y+32	; 0x20
    111c:	69 a1       	ldd	r22, Y+33	; 0x21
    111e:	7a a1       	ldd	r23, Y+34	; 0x22
    1120:	c8 01       	movw	r24, r16
    1122:	89 2f       	mov	r24, r25
    1124:	99 27       	eor	r25, r25
    1126:	86 95       	lsr	r24
    1128:	48 0f       	add	r20, r24
    112a:	59 1f       	adc	r21, r25
    112c:	61 1d       	adc	r22, r1
    112e:	71 1d       	adc	r23, r1
    1130:	ce 01       	movw	r24, r28
    1132:	fb da       	rcall	.-2570   	; 0x72a <move_window>
    1134:	81 11       	cpse	r24, r1
    1136:	86 c0       	rjmp	.+268    	; 0x1244 <get_fat+0x188>
    1138:	58 01       	movw	r10, r16
    113a:	ff ef       	ldi	r31, 0xFF	; 255
    113c:	af 1a       	sub	r10, r31
    113e:	bf 0a       	sbc	r11, r31
    1140:	11 70       	andi	r17, 0x01	; 1
    1142:	fe 01       	movw	r30, r28
    1144:	e0 0f       	add	r30, r16
    1146:	f1 1f       	adc	r31, r17
    1148:	07 a5       	ldd	r16, Z+47	; 0x2f
    114a:	10 e0       	ldi	r17, 0x00	; 0
    114c:	4f 8d       	ldd	r20, Y+31	; 0x1f
    114e:	58 a1       	ldd	r21, Y+32	; 0x20
    1150:	69 a1       	ldd	r22, Y+33	; 0x21
    1152:	7a a1       	ldd	r23, Y+34	; 0x22
    1154:	c5 01       	movw	r24, r10
    1156:	89 2f       	mov	r24, r25
    1158:	99 27       	eor	r25, r25
    115a:	86 95       	lsr	r24
    115c:	48 0f       	add	r20, r24
    115e:	59 1f       	adc	r21, r25
    1160:	61 1d       	adc	r22, r1
    1162:	71 1d       	adc	r23, r1
    1164:	ce 01       	movw	r24, r28
    1166:	e1 da       	rcall	.-2622   	; 0x72a <move_window>
    1168:	81 11       	cpse	r24, r1
    116a:	70 c0       	rjmp	.+224    	; 0x124c <get_fat+0x190>
    116c:	81 e0       	ldi	r24, 0x01	; 1
    116e:	b8 22       	and	r11, r24
    1170:	ca 0d       	add	r28, r10
    1172:	db 1d       	adc	r29, r11
    1174:	6f a5       	ldd	r22, Y+47	; 0x2f
    1176:	70 e0       	ldi	r23, 0x00	; 0
    1178:	76 2f       	mov	r23, r22
    117a:	66 27       	eor	r22, r22
    117c:	60 2b       	or	r22, r16
    117e:	71 2b       	or	r23, r17
    1180:	c0 fe       	sbrs	r12, 0
    1182:	09 c0       	rjmp	.+18     	; 0x1196 <get_fat+0xda>
    1184:	72 95       	swap	r23
    1186:	62 95       	swap	r22
    1188:	6f 70       	andi	r22, 0x0F	; 15
    118a:	67 27       	eor	r22, r23
    118c:	7f 70       	andi	r23, 0x0F	; 15
    118e:	67 27       	eor	r22, r23
    1190:	80 e0       	ldi	r24, 0x00	; 0
    1192:	90 e0       	ldi	r25, 0x00	; 0
    1194:	66 c0       	rjmp	.+204    	; 0x1262 <get_fat+0x1a6>
    1196:	7f 70       	andi	r23, 0x0F	; 15
    1198:	80 e0       	ldi	r24, 0x00	; 0
    119a:	90 e0       	ldi	r25, 0x00	; 0
    119c:	62 c0       	rjmp	.+196    	; 0x1262 <get_fat+0x1a6>
    119e:	4f 8d       	ldd	r20, Y+31	; 0x1f
    11a0:	58 a1       	ldd	r21, Y+32	; 0x20
    11a2:	69 a1       	ldd	r22, Y+33	; 0x21
    11a4:	7a a1       	ldd	r23, Y+34	; 0x22
    11a6:	bb 27       	eor	r27, r27
    11a8:	af 2d       	mov	r26, r15
    11aa:	9e 2d       	mov	r25, r14
    11ac:	8d 2d       	mov	r24, r13
    11ae:	48 0f       	add	r20, r24
    11b0:	59 1f       	adc	r21, r25
    11b2:	6a 1f       	adc	r22, r26
    11b4:	7b 1f       	adc	r23, r27
    11b6:	ce 01       	movw	r24, r28
    11b8:	b8 da       	rcall	.-2704   	; 0x72a <move_window>
    11ba:	81 11       	cpse	r24, r1
    11bc:	4b c0       	rjmp	.+150    	; 0x1254 <get_fat+0x198>
    11be:	ce 01       	movw	r24, r28
    11c0:	8f 96       	adiw	r24, 0x2f	; 47
    11c2:	a6 01       	movw	r20, r12
    11c4:	44 0f       	add	r20, r20
    11c6:	55 1f       	adc	r21, r21
    11c8:	4e 7f       	andi	r20, 0xFE	; 254
    11ca:	51 70       	andi	r21, 0x01	; 1
    11cc:	84 0f       	add	r24, r20
    11ce:	95 1f       	adc	r25, r21
    11d0:	0e 94 94 00 	call	0x128	; 0x128 <ld_word>
    11d4:	bc 01       	movw	r22, r24
    11d6:	80 e0       	ldi	r24, 0x00	; 0
    11d8:	90 e0       	ldi	r25, 0x00	; 0
    11da:	43 c0       	rjmp	.+134    	; 0x1262 <get_fat+0x1a6>
    11dc:	4f 8d       	ldd	r20, Y+31	; 0x1f
    11de:	58 a1       	ldd	r21, Y+32	; 0x20
    11e0:	69 a1       	ldd	r22, Y+33	; 0x21
    11e2:	7a a1       	ldd	r23, Y+34	; 0x22
    11e4:	d7 01       	movw	r26, r14
    11e6:	c6 01       	movw	r24, r12
    11e8:	68 94       	set
    11ea:	16 f8       	bld	r1, 6
    11ec:	b6 95       	lsr	r27
    11ee:	a7 95       	ror	r26
    11f0:	97 95       	ror	r25
    11f2:	87 95       	ror	r24
    11f4:	16 94       	lsr	r1
    11f6:	d1 f7       	brne	.-12     	; 0x11ec <get_fat+0x130>
    11f8:	48 0f       	add	r20, r24
    11fa:	59 1f       	adc	r21, r25
    11fc:	6a 1f       	adc	r22, r26
    11fe:	7b 1f       	adc	r23, r27
    1200:	ce 01       	movw	r24, r28
    1202:	93 da       	rcall	.-2778   	; 0x72a <move_window>
    1204:	81 11       	cpse	r24, r1
    1206:	2a c0       	rjmp	.+84     	; 0x125c <get_fat+0x1a0>
    1208:	af 96       	adiw	r28, 0x2f	; 47
    120a:	a6 01       	movw	r20, r12
    120c:	44 0f       	add	r20, r20
    120e:	55 1f       	adc	r21, r21
    1210:	44 0f       	add	r20, r20
    1212:	55 1f       	adc	r21, r21
    1214:	ca 01       	movw	r24, r20
    1216:	8c 7f       	andi	r24, 0xFC	; 252
    1218:	91 70       	andi	r25, 0x01	; 1
    121a:	8c 0f       	add	r24, r28
    121c:	9d 1f       	adc	r25, r29
    121e:	0e 94 9e 00 	call	0x13c	; 0x13c <ld_dword>
    1222:	9f 70       	andi	r25, 0x0F	; 15
    1224:	1e c0       	rjmp	.+60     	; 0x1262 <get_fat+0x1a6>
    1226:	61 e0       	ldi	r22, 0x01	; 1
    1228:	70 e0       	ldi	r23, 0x00	; 0
    122a:	80 e0       	ldi	r24, 0x00	; 0
    122c:	90 e0       	ldi	r25, 0x00	; 0
    122e:	19 c0       	rjmp	.+50     	; 0x1262 <get_fat+0x1a6>
    1230:	61 e0       	ldi	r22, 0x01	; 1
    1232:	70 e0       	ldi	r23, 0x00	; 0
    1234:	80 e0       	ldi	r24, 0x00	; 0
    1236:	90 e0       	ldi	r25, 0x00	; 0
    1238:	14 c0       	rjmp	.+40     	; 0x1262 <get_fat+0x1a6>
    123a:	61 e0       	ldi	r22, 0x01	; 1
    123c:	70 e0       	ldi	r23, 0x00	; 0
    123e:	80 e0       	ldi	r24, 0x00	; 0
    1240:	90 e0       	ldi	r25, 0x00	; 0
    1242:	0f c0       	rjmp	.+30     	; 0x1262 <get_fat+0x1a6>
    1244:	6f ef       	ldi	r22, 0xFF	; 255
    1246:	7f ef       	ldi	r23, 0xFF	; 255
    1248:	cb 01       	movw	r24, r22
    124a:	0b c0       	rjmp	.+22     	; 0x1262 <get_fat+0x1a6>
    124c:	6f ef       	ldi	r22, 0xFF	; 255
    124e:	7f ef       	ldi	r23, 0xFF	; 255
    1250:	cb 01       	movw	r24, r22
    1252:	07 c0       	rjmp	.+14     	; 0x1262 <get_fat+0x1a6>
    1254:	6f ef       	ldi	r22, 0xFF	; 255
    1256:	7f ef       	ldi	r23, 0xFF	; 255
    1258:	cb 01       	movw	r24, r22
    125a:	03 c0       	rjmp	.+6      	; 0x1262 <get_fat+0x1a6>
    125c:	6f ef       	ldi	r22, 0xFF	; 255
    125e:	7f ef       	ldi	r23, 0xFF	; 255
    1260:	cb 01       	movw	r24, r22
    1262:	df 91       	pop	r29
    1264:	cf 91       	pop	r28
    1266:	1f 91       	pop	r17
    1268:	0f 91       	pop	r16
    126a:	ff 90       	pop	r15
    126c:	ef 90       	pop	r14
    126e:	df 90       	pop	r13
    1270:	cf 90       	pop	r12
    1272:	bf 90       	pop	r11
    1274:	af 90       	pop	r10
    1276:	08 95       	ret

00001278 <dir_sdi>:
    1278:	4f 92       	push	r4
    127a:	5f 92       	push	r5
    127c:	6f 92       	push	r6
    127e:	7f 92       	push	r7
    1280:	8f 92       	push	r8
    1282:	9f 92       	push	r9
    1284:	af 92       	push	r10
    1286:	bf 92       	push	r11
    1288:	cf 92       	push	r12
    128a:	df 92       	push	r13
    128c:	ef 92       	push	r14
    128e:	ff 92       	push	r15
    1290:	0f 93       	push	r16
    1292:	1f 93       	push	r17
    1294:	cf 93       	push	r28
    1296:	df 93       	push	r29
    1298:	ec 01       	movw	r28, r24
    129a:	6a 01       	movw	r12, r20
    129c:	7b 01       	movw	r14, r22
    129e:	08 81       	ld	r16, Y
    12a0:	19 81       	ldd	r17, Y+1	; 0x01
    12a2:	41 15       	cp	r20, r1
    12a4:	51 05       	cpc	r21, r1
    12a6:	80 e2       	ldi	r24, 0x20	; 32
    12a8:	68 07       	cpc	r22, r24
    12aa:	71 05       	cpc	r23, r1
    12ac:	08 f0       	brcs	.+2      	; 0x12b0 <dir_sdi+0x38>
    12ae:	ab c0       	rjmp	.+342    	; 0x1406 <dir_sdi+0x18e>
    12b0:	db 01       	movw	r26, r22
    12b2:	ca 01       	movw	r24, r20
    12b4:	8f 71       	andi	r24, 0x1F	; 31
    12b6:	99 27       	eor	r25, r25
    12b8:	aa 27       	eor	r26, r26
    12ba:	bb 27       	eor	r27, r27
    12bc:	89 2b       	or	r24, r25
    12be:	8a 2b       	or	r24, r26
    12c0:	8b 2b       	or	r24, r27
    12c2:	09 f0       	breq	.+2      	; 0x12c6 <dir_sdi+0x4e>
    12c4:	a2 c0       	rjmp	.+324    	; 0x140a <dir_sdi+0x192>
    12c6:	4e 87       	std	Y+14, r20	; 0x0e
    12c8:	5f 87       	std	Y+15, r21	; 0x0f
    12ca:	68 8b       	std	Y+16, r22	; 0x10
    12cc:	79 8b       	std	Y+17, r23	; 0x11
    12ce:	8e 80       	ldd	r8, Y+6	; 0x06
    12d0:	9f 80       	ldd	r9, Y+7	; 0x07
    12d2:	a8 84       	ldd	r10, Y+8	; 0x08
    12d4:	b9 84       	ldd	r11, Y+9	; 0x09
    12d6:	81 14       	cp	r8, r1
    12d8:	91 04       	cpc	r9, r1
    12da:	a1 04       	cpc	r10, r1
    12dc:	b1 04       	cpc	r11, r1
    12de:	41 f4       	brne	.+16     	; 0x12f0 <dir_sdi+0x78>
    12e0:	f8 01       	movw	r30, r16
    12e2:	80 81       	ld	r24, Z
    12e4:	83 30       	cpi	r24, 0x03	; 3
    12e6:	20 f0       	brcs	.+8      	; 0x12f0 <dir_sdi+0x78>
    12e8:	83 a0       	ldd	r8, Z+35	; 0x23
    12ea:	94 a0       	ldd	r9, Z+36	; 0x24
    12ec:	a5 a0       	ldd	r10, Z+37	; 0x25
    12ee:	b6 a0       	ldd	r11, Z+38	; 0x26
    12f0:	81 14       	cp	r8, r1
    12f2:	91 04       	cpc	r9, r1
    12f4:	a1 04       	cpc	r10, r1
    12f6:	b1 04       	cpc	r11, r1
    12f8:	f1 f4       	brne	.+60     	; 0x1336 <dir_sdi+0xbe>
    12fa:	f8 01       	movw	r30, r16
    12fc:	87 81       	ldd	r24, Z+7	; 0x07
    12fe:	90 85       	ldd	r25, Z+8	; 0x08
    1300:	a0 e0       	ldi	r26, 0x00	; 0
    1302:	b0 e0       	ldi	r27, 0x00	; 0
    1304:	b7 01       	movw	r22, r14
    1306:	a6 01       	movw	r20, r12
    1308:	68 94       	set
    130a:	14 f8       	bld	r1, 4
    130c:	76 95       	lsr	r23
    130e:	67 95       	ror	r22
    1310:	57 95       	ror	r21
    1312:	47 95       	ror	r20
    1314:	16 94       	lsr	r1
    1316:	d1 f7       	brne	.-12     	; 0x130c <dir_sdi+0x94>
    1318:	48 17       	cp	r20, r24
    131a:	59 07       	cpc	r21, r25
    131c:	6a 07       	cpc	r22, r26
    131e:	7b 07       	cpc	r23, r27
    1320:	08 f0       	brcs	.+2      	; 0x1324 <dir_sdi+0xac>
    1322:	75 c0       	rjmp	.+234    	; 0x140e <dir_sdi+0x196>
    1324:	83 a1       	ldd	r24, Z+35	; 0x23
    1326:	94 a1       	ldd	r25, Z+36	; 0x24
    1328:	a5 a1       	ldd	r26, Z+37	; 0x25
    132a:	b6 a1       	ldd	r27, Z+38	; 0x26
    132c:	8e 8b       	std	Y+22, r24	; 0x16
    132e:	9f 8b       	std	Y+23, r25	; 0x17
    1330:	a8 8f       	std	Y+24, r26	; 0x18
    1332:	b9 8f       	std	Y+25, r27	; 0x19
    1334:	3f c0       	rjmp	.+126    	; 0x13b4 <dir_sdi+0x13c>
    1336:	f8 01       	movw	r30, r16
    1338:	41 84       	ldd	r4, Z+9	; 0x09
    133a:	52 84       	ldd	r5, Z+10	; 0x0a
    133c:	61 2c       	mov	r6, r1
    133e:	71 2c       	mov	r7, r1
    1340:	03 2e       	mov	r0, r19
    1342:	39 e0       	ldi	r19, 0x09	; 9
    1344:	44 0c       	add	r4, r4
    1346:	55 1c       	adc	r5, r5
    1348:	66 1c       	adc	r6, r6
    134a:	77 1c       	adc	r7, r7
    134c:	3a 95       	dec	r19
    134e:	d1 f7       	brne	.-12     	; 0x1344 <dir_sdi+0xcc>
    1350:	30 2d       	mov	r19, r0
    1352:	22 c0       	rjmp	.+68     	; 0x1398 <dir_sdi+0x120>
    1354:	b5 01       	movw	r22, r10
    1356:	a4 01       	movw	r20, r8
    1358:	ce 01       	movw	r24, r28
    135a:	b0 de       	rcall	.-672    	; 0x10bc <get_fat>
    135c:	4b 01       	movw	r8, r22
    135e:	5c 01       	movw	r10, r24
    1360:	6f 3f       	cpi	r22, 0xFF	; 255
    1362:	7f 4f       	sbci	r23, 0xFF	; 255
    1364:	8f 4f       	sbci	r24, 0xFF	; 255
    1366:	9f 4f       	sbci	r25, 0xFF	; 255
    1368:	09 f4       	brne	.+2      	; 0x136c <dir_sdi+0xf4>
    136a:	53 c0       	rjmp	.+166    	; 0x1412 <dir_sdi+0x19a>
    136c:	82 e0       	ldi	r24, 0x02	; 2
    136e:	88 16       	cp	r8, r24
    1370:	91 04       	cpc	r9, r1
    1372:	a1 04       	cpc	r10, r1
    1374:	b1 04       	cpc	r11, r1
    1376:	08 f4       	brcc	.+2      	; 0x137a <dir_sdi+0x102>
    1378:	4e c0       	rjmp	.+156    	; 0x1416 <dir_sdi+0x19e>
    137a:	f8 01       	movw	r30, r16
    137c:	83 89       	ldd	r24, Z+19	; 0x13
    137e:	94 89       	ldd	r25, Z+20	; 0x14
    1380:	a5 89       	ldd	r26, Z+21	; 0x15
    1382:	b6 89       	ldd	r27, Z+22	; 0x16
    1384:	88 16       	cp	r8, r24
    1386:	99 06       	cpc	r9, r25
    1388:	aa 06       	cpc	r10, r26
    138a:	bb 06       	cpc	r11, r27
    138c:	08 f0       	brcs	.+2      	; 0x1390 <dir_sdi+0x118>
    138e:	45 c0       	rjmp	.+138    	; 0x141a <dir_sdi+0x1a2>
    1390:	c4 18       	sub	r12, r4
    1392:	d5 08       	sbc	r13, r5
    1394:	e6 08       	sbc	r14, r6
    1396:	f7 08       	sbc	r15, r7
    1398:	c4 14       	cp	r12, r4
    139a:	d5 04       	cpc	r13, r5
    139c:	e6 04       	cpc	r14, r6
    139e:	f7 04       	cpc	r15, r7
    13a0:	c8 f6       	brcc	.-78     	; 0x1354 <dir_sdi+0xdc>
    13a2:	b5 01       	movw	r22, r10
    13a4:	a4 01       	movw	r20, r8
    13a6:	c8 01       	movw	r24, r16
    13a8:	0e 94 30 01 	call	0x260	; 0x260 <clst2sect>
    13ac:	6e 8b       	std	Y+22, r22	; 0x16
    13ae:	7f 8b       	std	Y+23, r23	; 0x17
    13b0:	88 8f       	std	Y+24, r24	; 0x18
    13b2:	99 8f       	std	Y+25, r25	; 0x19
    13b4:	8a 8a       	std	Y+18, r8	; 0x12
    13b6:	9b 8a       	std	Y+19, r9	; 0x13
    13b8:	ac 8a       	std	Y+20, r10	; 0x14
    13ba:	bd 8a       	std	Y+21, r11	; 0x15
    13bc:	8e 89       	ldd	r24, Y+22	; 0x16
    13be:	9f 89       	ldd	r25, Y+23	; 0x17
    13c0:	a8 8d       	ldd	r26, Y+24	; 0x18
    13c2:	b9 8d       	ldd	r27, Y+25	; 0x19
    13c4:	00 97       	sbiw	r24, 0x00	; 0
    13c6:	a1 05       	cpc	r26, r1
    13c8:	b1 05       	cpc	r27, r1
    13ca:	49 f1       	breq	.+82     	; 0x141e <dir_sdi+0x1a6>
    13cc:	b7 01       	movw	r22, r14
    13ce:	a6 01       	movw	r20, r12
    13d0:	03 2e       	mov	r0, r19
    13d2:	39 e0       	ldi	r19, 0x09	; 9
    13d4:	76 95       	lsr	r23
    13d6:	67 95       	ror	r22
    13d8:	57 95       	ror	r21
    13da:	47 95       	ror	r20
    13dc:	3a 95       	dec	r19
    13de:	d1 f7       	brne	.-12     	; 0x13d4 <dir_sdi+0x15c>
    13e0:	30 2d       	mov	r19, r0
    13e2:	84 0f       	add	r24, r20
    13e4:	95 1f       	adc	r25, r21
    13e6:	a6 1f       	adc	r26, r22
    13e8:	b7 1f       	adc	r27, r23
    13ea:	8e 8b       	std	Y+22, r24	; 0x16
    13ec:	9f 8b       	std	Y+23, r25	; 0x17
    13ee:	a8 8f       	std	Y+24, r26	; 0x18
    13f0:	b9 8f       	std	Y+25, r27	; 0x19
    13f2:	01 5d       	subi	r16, 0xD1	; 209
    13f4:	1f 4f       	sbci	r17, 0xFF	; 255
    13f6:	f1 e0       	ldi	r31, 0x01	; 1
    13f8:	df 22       	and	r13, r31
    13fa:	c0 0e       	add	r12, r16
    13fc:	d1 1e       	adc	r13, r17
    13fe:	db 8e       	std	Y+27, r13	; 0x1b
    1400:	ca 8e       	std	Y+26, r12	; 0x1a
    1402:	80 e0       	ldi	r24, 0x00	; 0
    1404:	0d c0       	rjmp	.+26     	; 0x1420 <dir_sdi+0x1a8>
    1406:	82 e0       	ldi	r24, 0x02	; 2
    1408:	0b c0       	rjmp	.+22     	; 0x1420 <dir_sdi+0x1a8>
    140a:	82 e0       	ldi	r24, 0x02	; 2
    140c:	09 c0       	rjmp	.+18     	; 0x1420 <dir_sdi+0x1a8>
    140e:	82 e0       	ldi	r24, 0x02	; 2
    1410:	07 c0       	rjmp	.+14     	; 0x1420 <dir_sdi+0x1a8>
    1412:	81 e0       	ldi	r24, 0x01	; 1
    1414:	05 c0       	rjmp	.+10     	; 0x1420 <dir_sdi+0x1a8>
    1416:	82 e0       	ldi	r24, 0x02	; 2
    1418:	03 c0       	rjmp	.+6      	; 0x1420 <dir_sdi+0x1a8>
    141a:	82 e0       	ldi	r24, 0x02	; 2
    141c:	01 c0       	rjmp	.+2      	; 0x1420 <dir_sdi+0x1a8>
    141e:	82 e0       	ldi	r24, 0x02	; 2
    1420:	df 91       	pop	r29
    1422:	cf 91       	pop	r28
    1424:	1f 91       	pop	r17
    1426:	0f 91       	pop	r16
    1428:	ff 90       	pop	r15
    142a:	ef 90       	pop	r14
    142c:	df 90       	pop	r13
    142e:	cf 90       	pop	r12
    1430:	bf 90       	pop	r11
    1432:	af 90       	pop	r10
    1434:	9f 90       	pop	r9
    1436:	8f 90       	pop	r8
    1438:	7f 90       	pop	r7
    143a:	6f 90       	pop	r6
    143c:	5f 90       	pop	r5
    143e:	4f 90       	pop	r4
    1440:	08 95       	ret

00001442 <create_chain>:
    1442:	4f 92       	push	r4
    1444:	5f 92       	push	r5
    1446:	6f 92       	push	r6
    1448:	7f 92       	push	r7
    144a:	8f 92       	push	r8
    144c:	9f 92       	push	r9
    144e:	af 92       	push	r10
    1450:	bf 92       	push	r11
    1452:	cf 92       	push	r12
    1454:	df 92       	push	r13
    1456:	ef 92       	push	r14
    1458:	ff 92       	push	r15
    145a:	0f 93       	push	r16
    145c:	1f 93       	push	r17
    145e:	cf 93       	push	r28
    1460:	df 93       	push	r29
    1462:	8c 01       	movw	r16, r24
    1464:	2a 01       	movw	r4, r20
    1466:	3b 01       	movw	r6, r22
    1468:	fc 01       	movw	r30, r24
    146a:	c0 81       	ld	r28, Z
    146c:	d1 81       	ldd	r29, Z+1	; 0x01
    146e:	41 15       	cp	r20, r1
    1470:	51 05       	cpc	r21, r1
    1472:	61 05       	cpc	r22, r1
    1474:	71 05       	cpc	r23, r1
    1476:	99 f4       	brne	.+38     	; 0x149e <create_chain+0x5c>
    1478:	8b 84       	ldd	r8, Y+11	; 0x0b
    147a:	9c 84       	ldd	r9, Y+12	; 0x0c
    147c:	ad 84       	ldd	r10, Y+13	; 0x0d
    147e:	be 84       	ldd	r11, Y+14	; 0x0e
    1480:	81 14       	cp	r8, r1
    1482:	91 04       	cpc	r9, r1
    1484:	a1 04       	cpc	r10, r1
    1486:	b1 04       	cpc	r11, r1
    1488:	29 f1       	breq	.+74     	; 0x14d4 <create_chain+0x92>
    148a:	8b 89       	ldd	r24, Y+19	; 0x13
    148c:	9c 89       	ldd	r25, Y+20	; 0x14
    148e:	ad 89       	ldd	r26, Y+21	; 0x15
    1490:	be 89       	ldd	r27, Y+22	; 0x16
    1492:	88 16       	cp	r8, r24
    1494:	99 06       	cpc	r9, r25
    1496:	aa 06       	cpc	r10, r26
    1498:	bb 06       	cpc	r11, r27
    149a:	08 f5       	brcc	.+66     	; 0x14de <create_chain+0x9c>
    149c:	24 c0       	rjmp	.+72     	; 0x14e6 <create_chain+0xa4>
    149e:	0e de       	rcall	.-996    	; 0x10bc <get_fat>
    14a0:	62 30       	cpi	r22, 0x02	; 2
    14a2:	71 05       	cpc	r23, r1
    14a4:	81 05       	cpc	r24, r1
    14a6:	91 05       	cpc	r25, r1
    14a8:	08 f4       	brcc	.+2      	; 0x14ac <create_chain+0x6a>
    14aa:	f5 c0       	rjmp	.+490    	; 0x1696 <create_chain+0x254>
    14ac:	6f 3f       	cpi	r22, 0xFF	; 255
    14ae:	ff ef       	ldi	r31, 0xFF	; 255
    14b0:	7f 07       	cpc	r23, r31
    14b2:	8f 07       	cpc	r24, r31
    14b4:	9f 07       	cpc	r25, r31
    14b6:	09 f4       	brne	.+2      	; 0x14ba <create_chain+0x78>
    14b8:	ff c0       	rjmp	.+510    	; 0x16b8 <create_chain+0x276>
    14ba:	cb 88       	ldd	r12, Y+19	; 0x13
    14bc:	dc 88       	ldd	r13, Y+20	; 0x14
    14be:	ed 88       	ldd	r14, Y+21	; 0x15
    14c0:	fe 88       	ldd	r15, Y+22	; 0x16
    14c2:	6c 15       	cp	r22, r12
    14c4:	7d 05       	cpc	r23, r13
    14c6:	8e 05       	cpc	r24, r14
    14c8:	9f 05       	cpc	r25, r15
    14ca:	08 f4       	brcc	.+2      	; 0x14ce <create_chain+0x8c>
    14cc:	f5 c0       	rjmp	.+490    	; 0x16b8 <create_chain+0x276>
    14ce:	53 01       	movw	r10, r6
    14d0:	42 01       	movw	r8, r4
    14d2:	09 c0       	rjmp	.+18     	; 0x14e6 <create_chain+0xa4>
    14d4:	81 2c       	mov	r8, r1
    14d6:	91 2c       	mov	r9, r1
    14d8:	54 01       	movw	r10, r8
    14da:	83 94       	inc	r8
    14dc:	04 c0       	rjmp	.+8      	; 0x14e6 <create_chain+0xa4>
    14de:	81 2c       	mov	r8, r1
    14e0:	91 2c       	mov	r9, r1
    14e2:	54 01       	movw	r10, r8
    14e4:	83 94       	inc	r8
    14e6:	6f 85       	ldd	r22, Y+15	; 0x0f
    14e8:	78 89       	ldd	r23, Y+16	; 0x10
    14ea:	89 89       	ldd	r24, Y+17	; 0x11
    14ec:	9a 89       	ldd	r25, Y+18	; 0x12
    14ee:	61 15       	cp	r22, r1
    14f0:	71 05       	cpc	r23, r1
    14f2:	81 05       	cpc	r24, r1
    14f4:	91 05       	cpc	r25, r1
    14f6:	09 f4       	brne	.+2      	; 0x14fa <create_chain+0xb8>
    14f8:	df c0       	rjmp	.+446    	; 0x16b8 <create_chain+0x276>
    14fa:	84 14       	cp	r8, r4
    14fc:	95 04       	cpc	r9, r5
    14fe:	a6 04       	cpc	r10, r6
    1500:	b7 04       	cpc	r11, r7
    1502:	09 f0       	breq	.+2      	; 0x1506 <create_chain+0xc4>
    1504:	40 c0       	rjmp	.+128    	; 0x1586 <create_chain+0x144>
    1506:	75 01       	movw	r14, r10
    1508:	64 01       	movw	r12, r8
    150a:	2f ef       	ldi	r18, 0xFF	; 255
    150c:	c2 1a       	sub	r12, r18
    150e:	d2 0a       	sbc	r13, r18
    1510:	e2 0a       	sbc	r14, r18
    1512:	f2 0a       	sbc	r15, r18
    1514:	8b 89       	ldd	r24, Y+19	; 0x13
    1516:	9c 89       	ldd	r25, Y+20	; 0x14
    1518:	ad 89       	ldd	r26, Y+21	; 0x15
    151a:	be 89       	ldd	r27, Y+22	; 0x16
    151c:	c8 16       	cp	r12, r24
    151e:	d9 06       	cpc	r13, r25
    1520:	ea 06       	cpc	r14, r26
    1522:	fb 06       	cpc	r15, r27
    1524:	28 f0       	brcs	.+10     	; 0x1530 <create_chain+0xee>
    1526:	c1 2c       	mov	r12, r1
    1528:	d1 2c       	mov	r13, r1
    152a:	76 01       	movw	r14, r12
    152c:	68 94       	set
    152e:	c1 f8       	bld	r12, 1
    1530:	b7 01       	movw	r22, r14
    1532:	a6 01       	movw	r20, r12
    1534:	c8 01       	movw	r24, r16
    1536:	c2 dd       	rcall	.-1148   	; 0x10bc <get_fat>
    1538:	61 30       	cpi	r22, 0x01	; 1
    153a:	71 05       	cpc	r23, r1
    153c:	81 05       	cpc	r24, r1
    153e:	91 05       	cpc	r25, r1
    1540:	09 f4       	brne	.+2      	; 0x1544 <create_chain+0x102>
    1542:	ba c0       	rjmp	.+372    	; 0x16b8 <create_chain+0x276>
    1544:	6f 3f       	cpi	r22, 0xFF	; 255
    1546:	ef ef       	ldi	r30, 0xFF	; 255
    1548:	7e 07       	cpc	r23, r30
    154a:	8e 07       	cpc	r24, r30
    154c:	9e 07       	cpc	r25, r30
    154e:	09 f4       	brne	.+2      	; 0x1552 <create_chain+0x110>
    1550:	b3 c0       	rjmp	.+358    	; 0x16b8 <create_chain+0x276>
    1552:	67 2b       	or	r22, r23
    1554:	68 2b       	or	r22, r24
    1556:	69 2b       	or	r22, r25
    1558:	19 f1       	breq	.+70     	; 0x15a0 <create_chain+0x15e>
    155a:	8b 85       	ldd	r24, Y+11	; 0x0b
    155c:	9c 85       	ldd	r25, Y+12	; 0x0c
    155e:	ad 85       	ldd	r26, Y+13	; 0x0d
    1560:	be 85       	ldd	r27, Y+14	; 0x0e
    1562:	82 30       	cpi	r24, 0x02	; 2
    1564:	91 05       	cpc	r25, r1
    1566:	a1 05       	cpc	r26, r1
    1568:	b1 05       	cpc	r27, r1
    156a:	88 f0       	brcs	.+34     	; 0x158e <create_chain+0x14c>
    156c:	4b 89       	ldd	r20, Y+19	; 0x13
    156e:	5c 89       	ldd	r21, Y+20	; 0x14
    1570:	6d 89       	ldd	r22, Y+21	; 0x15
    1572:	7e 89       	ldd	r23, Y+22	; 0x16
    1574:	84 17       	cp	r24, r20
    1576:	95 07       	cpc	r25, r21
    1578:	a6 07       	cpc	r26, r22
    157a:	b7 07       	cpc	r27, r23
    157c:	60 f0       	brcs	.+24     	; 0x1596 <create_chain+0x154>
    157e:	c1 2c       	mov	r12, r1
    1580:	d1 2c       	mov	r13, r1
    1582:	76 01       	movw	r14, r12
    1584:	0d c0       	rjmp	.+26     	; 0x15a0 <create_chain+0x15e>
    1586:	c1 2c       	mov	r12, r1
    1588:	d1 2c       	mov	r13, r1
    158a:	76 01       	movw	r14, r12
    158c:	09 c0       	rjmp	.+18     	; 0x15a0 <create_chain+0x15e>
    158e:	c1 2c       	mov	r12, r1
    1590:	d1 2c       	mov	r13, r1
    1592:	76 01       	movw	r14, r12
    1594:	05 c0       	rjmp	.+10     	; 0x15a0 <create_chain+0x15e>
    1596:	4c 01       	movw	r8, r24
    1598:	5d 01       	movw	r10, r26
    159a:	c1 2c       	mov	r12, r1
    159c:	d1 2c       	mov	r13, r1
    159e:	76 01       	movw	r14, r12
    15a0:	c1 14       	cp	r12, r1
    15a2:	d1 04       	cpc	r13, r1
    15a4:	e1 04       	cpc	r14, r1
    15a6:	f1 04       	cpc	r15, r1
    15a8:	c1 f5       	brne	.+112    	; 0x161a <create_chain+0x1d8>
    15aa:	75 01       	movw	r14, r10
    15ac:	64 01       	movw	r12, r8
    15ae:	ff ef       	ldi	r31, 0xFF	; 255
    15b0:	cf 1a       	sub	r12, r31
    15b2:	df 0a       	sbc	r13, r31
    15b4:	ef 0a       	sbc	r14, r31
    15b6:	ff 0a       	sbc	r15, r31
    15b8:	8b 89       	ldd	r24, Y+19	; 0x13
    15ba:	9c 89       	ldd	r25, Y+20	; 0x14
    15bc:	ad 89       	ldd	r26, Y+21	; 0x15
    15be:	be 89       	ldd	r27, Y+22	; 0x16
    15c0:	c8 16       	cp	r12, r24
    15c2:	d9 06       	cpc	r13, r25
    15c4:	ea 06       	cpc	r14, r26
    15c6:	fb 06       	cpc	r15, r27
    15c8:	60 f0       	brcs	.+24     	; 0x15e2 <create_chain+0x1a0>
    15ca:	22 e0       	ldi	r18, 0x02	; 2
    15cc:	82 16       	cp	r8, r18
    15ce:	91 04       	cpc	r9, r1
    15d0:	a1 04       	cpc	r10, r1
    15d2:	b1 04       	cpc	r11, r1
    15d4:	08 f4       	brcc	.+2      	; 0x15d8 <create_chain+0x196>
    15d6:	64 c0       	rjmp	.+200    	; 0x16a0 <create_chain+0x25e>
    15d8:	c1 2c       	mov	r12, r1
    15da:	d1 2c       	mov	r13, r1
    15dc:	76 01       	movw	r14, r12
    15de:	68 94       	set
    15e0:	c1 f8       	bld	r12, 1
    15e2:	b7 01       	movw	r22, r14
    15e4:	a6 01       	movw	r20, r12
    15e6:	c8 01       	movw	r24, r16
    15e8:	69 dd       	rcall	.-1326   	; 0x10bc <get_fat>
    15ea:	61 15       	cp	r22, r1
    15ec:	71 05       	cpc	r23, r1
    15ee:	81 05       	cpc	r24, r1
    15f0:	91 05       	cpc	r25, r1
    15f2:	99 f0       	breq	.+38     	; 0x161a <create_chain+0x1d8>
    15f4:	61 30       	cpi	r22, 0x01	; 1
    15f6:	71 05       	cpc	r23, r1
    15f8:	81 05       	cpc	r24, r1
    15fa:	91 05       	cpc	r25, r1
    15fc:	09 f4       	brne	.+2      	; 0x1600 <create_chain+0x1be>
    15fe:	5c c0       	rjmp	.+184    	; 0x16b8 <create_chain+0x276>
    1600:	6f 3f       	cpi	r22, 0xFF	; 255
    1602:	ef ef       	ldi	r30, 0xFF	; 255
    1604:	7e 07       	cpc	r23, r30
    1606:	8e 07       	cpc	r24, r30
    1608:	9e 07       	cpc	r25, r30
    160a:	09 f4       	brne	.+2      	; 0x160e <create_chain+0x1cc>
    160c:	55 c0       	rjmp	.+170    	; 0x16b8 <create_chain+0x276>
    160e:	c8 14       	cp	r12, r8
    1610:	d9 04       	cpc	r13, r9
    1612:	ea 04       	cpc	r14, r10
    1614:	fb 04       	cpc	r15, r11
    1616:	59 f6       	brne	.-106    	; 0x15ae <create_chain+0x16c>
    1618:	47 c0       	rjmp	.+142    	; 0x16a8 <create_chain+0x266>
    161a:	0f ef       	ldi	r16, 0xFF	; 255
    161c:	1f ef       	ldi	r17, 0xFF	; 255
    161e:	98 01       	movw	r18, r16
    1620:	b7 01       	movw	r22, r14
    1622:	a6 01       	movw	r20, r12
    1624:	ce 01       	movw	r24, r28
    1626:	27 dc       	rcall	.-1970   	; 0xe76 <put_fat>
    1628:	81 11       	cpse	r24, r1
    162a:	0b c0       	rjmp	.+22     	; 0x1642 <create_chain+0x200>
    162c:	41 14       	cp	r4, r1
    162e:	51 04       	cpc	r5, r1
    1630:	61 04       	cpc	r6, r1
    1632:	71 04       	cpc	r7, r1
    1634:	31 f0       	breq	.+12     	; 0x1642 <create_chain+0x200>
    1636:	97 01       	movw	r18, r14
    1638:	86 01       	movw	r16, r12
    163a:	b3 01       	movw	r22, r6
    163c:	a2 01       	movw	r20, r4
    163e:	ce 01       	movw	r24, r28
    1640:	1a dc       	rcall	.-1996   	; 0xe76 <put_fat>
    1642:	81 11       	cpse	r24, r1
    1644:	22 c0       	rjmp	.+68     	; 0x168a <create_chain+0x248>
    1646:	cb 86       	std	Y+11, r12	; 0x0b
    1648:	dc 86       	std	Y+12, r13	; 0x0c
    164a:	ed 86       	std	Y+13, r14	; 0x0d
    164c:	fe 86       	std	Y+14, r15	; 0x0e
    164e:	4f 85       	ldd	r20, Y+15	; 0x0f
    1650:	58 89       	ldd	r21, Y+16	; 0x10
    1652:	69 89       	ldd	r22, Y+17	; 0x11
    1654:	7a 89       	ldd	r23, Y+18	; 0x12
    1656:	8b 89       	ldd	r24, Y+19	; 0x13
    1658:	9c 89       	ldd	r25, Y+20	; 0x14
    165a:	ad 89       	ldd	r26, Y+21	; 0x15
    165c:	be 89       	ldd	r27, Y+22	; 0x16
    165e:	02 97       	sbiw	r24, 0x02	; 2
    1660:	a1 09       	sbc	r26, r1
    1662:	b1 09       	sbc	r27, r1
    1664:	84 17       	cp	r24, r20
    1666:	95 07       	cpc	r25, r21
    1668:	a6 07       	cpc	r26, r22
    166a:	b7 07       	cpc	r27, r23
    166c:	40 f0       	brcs	.+16     	; 0x167e <create_chain+0x23c>
    166e:	41 50       	subi	r20, 0x01	; 1
    1670:	51 09       	sbc	r21, r1
    1672:	61 09       	sbc	r22, r1
    1674:	71 09       	sbc	r23, r1
    1676:	4f 87       	std	Y+15, r20	; 0x0f
    1678:	58 8b       	std	Y+16, r21	; 0x10
    167a:	69 8b       	std	Y+17, r22	; 0x11
    167c:	7a 8b       	std	Y+18, r23	; 0x12
    167e:	8c 81       	ldd	r24, Y+4	; 0x04
    1680:	81 60       	ori	r24, 0x01	; 1
    1682:	8c 83       	std	Y+4, r24	; 0x04
    1684:	c7 01       	movw	r24, r14
    1686:	b6 01       	movw	r22, r12
    1688:	17 c0       	rjmp	.+46     	; 0x16b8 <create_chain+0x276>
    168a:	81 30       	cpi	r24, 0x01	; 1
    168c:	89 f4       	brne	.+34     	; 0x16b0 <create_chain+0x26e>
    168e:	6f ef       	ldi	r22, 0xFF	; 255
    1690:	7f ef       	ldi	r23, 0xFF	; 255
    1692:	cb 01       	movw	r24, r22
    1694:	11 c0       	rjmp	.+34     	; 0x16b8 <create_chain+0x276>
    1696:	61 e0       	ldi	r22, 0x01	; 1
    1698:	70 e0       	ldi	r23, 0x00	; 0
    169a:	80 e0       	ldi	r24, 0x00	; 0
    169c:	90 e0       	ldi	r25, 0x00	; 0
    169e:	0c c0       	rjmp	.+24     	; 0x16b8 <create_chain+0x276>
    16a0:	60 e0       	ldi	r22, 0x00	; 0
    16a2:	70 e0       	ldi	r23, 0x00	; 0
    16a4:	cb 01       	movw	r24, r22
    16a6:	08 c0       	rjmp	.+16     	; 0x16b8 <create_chain+0x276>
    16a8:	60 e0       	ldi	r22, 0x00	; 0
    16aa:	70 e0       	ldi	r23, 0x00	; 0
    16ac:	cb 01       	movw	r24, r22
    16ae:	04 c0       	rjmp	.+8      	; 0x16b8 <create_chain+0x276>
    16b0:	61 e0       	ldi	r22, 0x01	; 1
    16b2:	70 e0       	ldi	r23, 0x00	; 0
    16b4:	80 e0       	ldi	r24, 0x00	; 0
    16b6:	90 e0       	ldi	r25, 0x00	; 0
    16b8:	df 91       	pop	r29
    16ba:	cf 91       	pop	r28
    16bc:	1f 91       	pop	r17
    16be:	0f 91       	pop	r16
    16c0:	ff 90       	pop	r15
    16c2:	ef 90       	pop	r14
    16c4:	df 90       	pop	r13
    16c6:	cf 90       	pop	r12
    16c8:	bf 90       	pop	r11
    16ca:	af 90       	pop	r10
    16cc:	9f 90       	pop	r9
    16ce:	8f 90       	pop	r8
    16d0:	7f 90       	pop	r7
    16d2:	6f 90       	pop	r6
    16d4:	5f 90       	pop	r5
    16d6:	4f 90       	pop	r4
    16d8:	08 95       	ret

000016da <remove_chain>:
    16da:	4f 92       	push	r4
    16dc:	5f 92       	push	r5
    16de:	6f 92       	push	r6
    16e0:	7f 92       	push	r7
    16e2:	af 92       	push	r10
    16e4:	bf 92       	push	r11
    16e6:	cf 92       	push	r12
    16e8:	df 92       	push	r13
    16ea:	ef 92       	push	r14
    16ec:	ff 92       	push	r15
    16ee:	0f 93       	push	r16
    16f0:	1f 93       	push	r17
    16f2:	cf 93       	push	r28
    16f4:	df 93       	push	r29
    16f6:	5c 01       	movw	r10, r24
    16f8:	6a 01       	movw	r12, r20
    16fa:	7b 01       	movw	r14, r22
    16fc:	b9 01       	movw	r22, r18
    16fe:	a8 01       	movw	r20, r16
    1700:	fc 01       	movw	r30, r24
    1702:	c0 81       	ld	r28, Z
    1704:	d1 81       	ldd	r29, Z+1	; 0x01
    1706:	f2 e0       	ldi	r31, 0x02	; 2
    1708:	cf 16       	cp	r12, r31
    170a:	d1 04       	cpc	r13, r1
    170c:	e1 04       	cpc	r14, r1
    170e:	f1 04       	cpc	r15, r1
    1710:	08 f4       	brcc	.+2      	; 0x1714 <remove_chain+0x3a>
    1712:	5d c0       	rjmp	.+186    	; 0x17ce <remove_chain+0xf4>
    1714:	8b 89       	ldd	r24, Y+19	; 0x13
    1716:	9c 89       	ldd	r25, Y+20	; 0x14
    1718:	ad 89       	ldd	r26, Y+21	; 0x15
    171a:	be 89       	ldd	r27, Y+22	; 0x16
    171c:	c8 16       	cp	r12, r24
    171e:	d9 06       	cpc	r13, r25
    1720:	ea 06       	cpc	r14, r26
    1722:	fb 06       	cpc	r15, r27
    1724:	08 f0       	brcs	.+2      	; 0x1728 <remove_chain+0x4e>
    1726:	55 c0       	rjmp	.+170    	; 0x17d2 <remove_chain+0xf8>
    1728:	01 2b       	or	r16, r17
    172a:	02 2b       	or	r16, r18
    172c:	03 2b       	or	r16, r19
    172e:	39 f0       	breq	.+14     	; 0x173e <remove_chain+0x64>
    1730:	0f ef       	ldi	r16, 0xFF	; 255
    1732:	1f ef       	ldi	r17, 0xFF	; 255
    1734:	98 01       	movw	r18, r16
    1736:	ce 01       	movw	r24, r28
    1738:	9e db       	rcall	.-2244   	; 0xe76 <put_fat>
    173a:	81 11       	cpse	r24, r1
    173c:	51 c0       	rjmp	.+162    	; 0x17e0 <remove_chain+0x106>
    173e:	b7 01       	movw	r22, r14
    1740:	a6 01       	movw	r20, r12
    1742:	c5 01       	movw	r24, r10
    1744:	bb dc       	rcall	.-1674   	; 0x10bc <get_fat>
    1746:	2b 01       	movw	r4, r22
    1748:	3c 01       	movw	r6, r24
    174a:	61 15       	cp	r22, r1
    174c:	71 05       	cpc	r23, r1
    174e:	81 05       	cpc	r24, r1
    1750:	91 05       	cpc	r25, r1
    1752:	09 f4       	brne	.+2      	; 0x1756 <remove_chain+0x7c>
    1754:	40 c0       	rjmp	.+128    	; 0x17d6 <remove_chain+0xfc>
    1756:	61 30       	cpi	r22, 0x01	; 1
    1758:	71 05       	cpc	r23, r1
    175a:	81 05       	cpc	r24, r1
    175c:	91 05       	cpc	r25, r1
    175e:	e9 f1       	breq	.+122    	; 0x17da <remove_chain+0x100>
    1760:	8f ef       	ldi	r24, 0xFF	; 255
    1762:	48 16       	cp	r4, r24
    1764:	58 06       	cpc	r5, r24
    1766:	68 06       	cpc	r6, r24
    1768:	78 06       	cpc	r7, r24
    176a:	c9 f1       	breq	.+114    	; 0x17de <remove_chain+0x104>
    176c:	00 e0       	ldi	r16, 0x00	; 0
    176e:	10 e0       	ldi	r17, 0x00	; 0
    1770:	98 01       	movw	r18, r16
    1772:	b7 01       	movw	r22, r14
    1774:	a6 01       	movw	r20, r12
    1776:	ce 01       	movw	r24, r28
    1778:	7e db       	rcall	.-2308   	; 0xe76 <put_fat>
    177a:	81 11       	cpse	r24, r1
    177c:	31 c0       	rjmp	.+98     	; 0x17e0 <remove_chain+0x106>
    177e:	8f 85       	ldd	r24, Y+15	; 0x0f
    1780:	98 89       	ldd	r25, Y+16	; 0x10
    1782:	a9 89       	ldd	r26, Y+17	; 0x11
    1784:	ba 89       	ldd	r27, Y+18	; 0x12
    1786:	4b 89       	ldd	r20, Y+19	; 0x13
    1788:	5c 89       	ldd	r21, Y+20	; 0x14
    178a:	6d 89       	ldd	r22, Y+21	; 0x15
    178c:	7e 89       	ldd	r23, Y+22	; 0x16
    178e:	6a 01       	movw	r12, r20
    1790:	7b 01       	movw	r14, r22
    1792:	e2 e0       	ldi	r30, 0x02	; 2
    1794:	ce 1a       	sub	r12, r30
    1796:	d1 08       	sbc	r13, r1
    1798:	e1 08       	sbc	r14, r1
    179a:	f1 08       	sbc	r15, r1
    179c:	8c 15       	cp	r24, r12
    179e:	9d 05       	cpc	r25, r13
    17a0:	ae 05       	cpc	r26, r14
    17a2:	bf 05       	cpc	r27, r15
    17a4:	50 f4       	brcc	.+20     	; 0x17ba <remove_chain+0xe0>
    17a6:	01 96       	adiw	r24, 0x01	; 1
    17a8:	a1 1d       	adc	r26, r1
    17aa:	b1 1d       	adc	r27, r1
    17ac:	8f 87       	std	Y+15, r24	; 0x0f
    17ae:	98 8b       	std	Y+16, r25	; 0x10
    17b0:	a9 8b       	std	Y+17, r26	; 0x11
    17b2:	ba 8b       	std	Y+18, r27	; 0x12
    17b4:	8c 81       	ldd	r24, Y+4	; 0x04
    17b6:	81 60       	ori	r24, 0x01	; 1
    17b8:	8c 83       	std	Y+4, r24	; 0x04
    17ba:	73 01       	movw	r14, r6
    17bc:	62 01       	movw	r12, r4
    17be:	44 16       	cp	r4, r20
    17c0:	55 06       	cpc	r5, r21
    17c2:	66 06       	cpc	r6, r22
    17c4:	77 06       	cpc	r7, r23
    17c6:	08 f4       	brcc	.+2      	; 0x17ca <remove_chain+0xf0>
    17c8:	ba cf       	rjmp	.-140    	; 0x173e <remove_chain+0x64>
    17ca:	80 e0       	ldi	r24, 0x00	; 0
    17cc:	09 c0       	rjmp	.+18     	; 0x17e0 <remove_chain+0x106>
    17ce:	82 e0       	ldi	r24, 0x02	; 2
    17d0:	07 c0       	rjmp	.+14     	; 0x17e0 <remove_chain+0x106>
    17d2:	82 e0       	ldi	r24, 0x02	; 2
    17d4:	05 c0       	rjmp	.+10     	; 0x17e0 <remove_chain+0x106>
    17d6:	80 e0       	ldi	r24, 0x00	; 0
    17d8:	03 c0       	rjmp	.+6      	; 0x17e0 <remove_chain+0x106>
    17da:	82 e0       	ldi	r24, 0x02	; 2
    17dc:	01 c0       	rjmp	.+2      	; 0x17e0 <remove_chain+0x106>
    17de:	81 e0       	ldi	r24, 0x01	; 1
    17e0:	df 91       	pop	r29
    17e2:	cf 91       	pop	r28
    17e4:	1f 91       	pop	r17
    17e6:	0f 91       	pop	r16
    17e8:	ff 90       	pop	r15
    17ea:	ef 90       	pop	r14
    17ec:	df 90       	pop	r13
    17ee:	cf 90       	pop	r12
    17f0:	bf 90       	pop	r11
    17f2:	af 90       	pop	r10
    17f4:	7f 90       	pop	r7
    17f6:	6f 90       	pop	r6
    17f8:	5f 90       	pop	r5
    17fa:	4f 90       	pop	r4
    17fc:	08 95       	ret

000017fe <dir_clear>:
    17fe:	8f 92       	push	r8
    1800:	9f 92       	push	r9
    1802:	af 92       	push	r10
    1804:	bf 92       	push	r11
    1806:	cf 92       	push	r12
    1808:	df 92       	push	r13
    180a:	ef 92       	push	r14
    180c:	ff 92       	push	r15
    180e:	0f 93       	push	r16
    1810:	1f 93       	push	r17
    1812:	cf 93       	push	r28
    1814:	df 93       	push	r29
    1816:	7c 01       	movw	r14, r24
    1818:	4a 01       	movw	r8, r20
    181a:	5b 01       	movw	r10, r22
    181c:	0e 94 3b 03 	call	0x676	; 0x676 <sync_window>
    1820:	81 11       	cpse	r24, r1
    1822:	38 c0       	rjmp	.+112    	; 0x1894 <dir_clear+0x96>
    1824:	b5 01       	movw	r22, r10
    1826:	a4 01       	movw	r20, r8
    1828:	c7 01       	movw	r24, r14
    182a:	0e 94 30 01 	call	0x260	; 0x260 <clst2sect>
    182e:	4b 01       	movw	r8, r22
    1830:	5c 01       	movw	r10, r24
    1832:	f7 01       	movw	r30, r14
    1834:	63 a7       	std	Z+43, r22	; 0x2b
    1836:	74 a7       	std	Z+44, r23	; 0x2c
    1838:	85 a7       	std	Z+45, r24	; 0x2d
    183a:	96 a7       	std	Z+46, r25	; 0x2e
    183c:	67 01       	movw	r12, r14
    183e:	ff e2       	ldi	r31, 0x2F	; 47
    1840:	cf 0e       	add	r12, r31
    1842:	d1 1c       	adc	r13, r1
    1844:	40 e0       	ldi	r20, 0x00	; 0
    1846:	52 e0       	ldi	r21, 0x02	; 2
    1848:	60 e0       	ldi	r22, 0x00	; 0
    184a:	70 e0       	ldi	r23, 0x00	; 0
    184c:	c6 01       	movw	r24, r12
    184e:	0e 94 d2 00 	call	0x1a4	; 0x1a4 <mem_set>
    1852:	c0 e0       	ldi	r28, 0x00	; 0
    1854:	d0 e0       	ldi	r29, 0x00	; 0
    1856:	01 c0       	rjmp	.+2      	; 0x185a <dir_clear+0x5c>
    1858:	21 96       	adiw	r28, 0x01	; 1
    185a:	f7 01       	movw	r30, r14
    185c:	81 85       	ldd	r24, Z+9	; 0x09
    185e:	92 85       	ldd	r25, Z+10	; 0x0a
    1860:	c8 17       	cp	r28, r24
    1862:	d9 07       	cpc	r29, r25
    1864:	70 f4       	brcc	.+28     	; 0x1882 <dir_clear+0x84>
    1866:	01 e0       	ldi	r16, 0x01	; 1
    1868:	10 e0       	ldi	r17, 0x00	; 0
    186a:	a5 01       	movw	r20, r10
    186c:	94 01       	movw	r18, r8
    186e:	2c 0f       	add	r18, r28
    1870:	3d 1f       	adc	r19, r29
    1872:	41 1d       	adc	r20, r1
    1874:	51 1d       	adc	r21, r1
    1876:	b6 01       	movw	r22, r12
    1878:	81 81       	ldd	r24, Z+1	; 0x01
    187a:	0e 94 51 15 	call	0x2aa2	; 0x2aa2 <disk_write>
    187e:	88 23       	and	r24, r24
    1880:	59 f3       	breq	.-42     	; 0x1858 <dir_clear+0x5a>
    1882:	f7 01       	movw	r30, r14
    1884:	21 85       	ldd	r18, Z+9	; 0x09
    1886:	32 85       	ldd	r19, Z+10	; 0x0a
    1888:	81 e0       	ldi	r24, 0x01	; 1
    188a:	c2 17       	cp	r28, r18
    188c:	d3 07       	cpc	r29, r19
    188e:	19 f4       	brne	.+6      	; 0x1896 <dir_clear+0x98>
    1890:	80 e0       	ldi	r24, 0x00	; 0
    1892:	01 c0       	rjmp	.+2      	; 0x1896 <dir_clear+0x98>
    1894:	81 e0       	ldi	r24, 0x01	; 1
    1896:	df 91       	pop	r29
    1898:	cf 91       	pop	r28
    189a:	1f 91       	pop	r17
    189c:	0f 91       	pop	r16
    189e:	ff 90       	pop	r15
    18a0:	ef 90       	pop	r14
    18a2:	df 90       	pop	r13
    18a4:	cf 90       	pop	r12
    18a6:	bf 90       	pop	r11
    18a8:	af 90       	pop	r10
    18aa:	9f 90       	pop	r9
    18ac:	8f 90       	pop	r8
    18ae:	08 95       	ret

000018b0 <dir_next>:
    18b0:	4f 92       	push	r4
    18b2:	5f 92       	push	r5
    18b4:	6f 92       	push	r6
    18b6:	7f 92       	push	r7
    18b8:	af 92       	push	r10
    18ba:	bf 92       	push	r11
    18bc:	cf 92       	push	r12
    18be:	df 92       	push	r13
    18c0:	ef 92       	push	r14
    18c2:	ff 92       	push	r15
    18c4:	0f 93       	push	r16
    18c6:	1f 93       	push	r17
    18c8:	cf 93       	push	r28
    18ca:	df 93       	push	r29
    18cc:	fc 01       	movw	r30, r24
    18ce:	c0 81       	ld	r28, Z
    18d0:	d1 81       	ldd	r29, Z+1	; 0x01
    18d2:	c6 84       	ldd	r12, Z+14	; 0x0e
    18d4:	d7 84       	ldd	r13, Z+15	; 0x0f
    18d6:	e0 88       	ldd	r14, Z+16	; 0x10
    18d8:	f1 88       	ldd	r15, Z+17	; 0x11
    18da:	80 e2       	ldi	r24, 0x20	; 32
    18dc:	c8 0e       	add	r12, r24
    18de:	d1 1c       	adc	r13, r1
    18e0:	e1 1c       	adc	r14, r1
    18e2:	f1 1c       	adc	r15, r1
    18e4:	c1 14       	cp	r12, r1
    18e6:	d1 04       	cpc	r13, r1
    18e8:	80 e2       	ldi	r24, 0x20	; 32
    18ea:	e8 06       	cpc	r14, r24
    18ec:	f1 04       	cpc	r15, r1
    18ee:	20 f0       	brcs	.+8      	; 0x18f8 <dir_next+0x48>
    18f0:	16 8a       	std	Z+22, r1	; 0x16
    18f2:	17 8a       	std	Z+23, r1	; 0x17
    18f4:	10 8e       	std	Z+24, r1	; 0x18
    18f6:	11 8e       	std	Z+25, r1	; 0x19
    18f8:	86 89       	ldd	r24, Z+22	; 0x16
    18fa:	97 89       	ldd	r25, Z+23	; 0x17
    18fc:	a0 8d       	ldd	r26, Z+24	; 0x18
    18fe:	b1 8d       	ldd	r27, Z+25	; 0x19
    1900:	00 97       	sbiw	r24, 0x00	; 0
    1902:	a1 05       	cpc	r26, r1
    1904:	b1 05       	cpc	r27, r1
    1906:	09 f4       	brne	.+2      	; 0x190a <dir_next+0x5a>
    1908:	b0 c0       	rjmp	.+352    	; 0x1a6a <dir_next+0x1ba>
    190a:	8b 01       	movw	r16, r22
    190c:	5f 01       	movw	r10, r30
    190e:	b7 01       	movw	r22, r14
    1910:	a6 01       	movw	r20, r12
    1912:	51 70       	andi	r21, 0x01	; 1
    1914:	66 27       	eor	r22, r22
    1916:	77 27       	eor	r23, r23
    1918:	45 2b       	or	r20, r21
    191a:	46 2b       	or	r20, r22
    191c:	47 2b       	or	r20, r23
    191e:	09 f0       	breq	.+2      	; 0x1922 <dir_next+0x72>
    1920:	95 c0       	rjmp	.+298    	; 0x1a4c <dir_next+0x19c>
    1922:	01 96       	adiw	r24, 0x01	; 1
    1924:	a1 1d       	adc	r26, r1
    1926:	b1 1d       	adc	r27, r1
    1928:	86 8b       	std	Z+22, r24	; 0x16
    192a:	97 8b       	std	Z+23, r25	; 0x17
    192c:	a0 8f       	std	Z+24, r26	; 0x18
    192e:	b1 8f       	std	Z+25, r27	; 0x19
    1930:	42 89       	ldd	r20, Z+18	; 0x12
    1932:	53 89       	ldd	r21, Z+19	; 0x13
    1934:	64 89       	ldd	r22, Z+20	; 0x14
    1936:	75 89       	ldd	r23, Z+21	; 0x15
    1938:	41 15       	cp	r20, r1
    193a:	51 05       	cpc	r21, r1
    193c:	61 05       	cpc	r22, r1
    193e:	71 05       	cpc	r23, r1
    1940:	d1 f4       	brne	.+52     	; 0x1976 <dir_next+0xc6>
    1942:	8f 81       	ldd	r24, Y+7	; 0x07
    1944:	98 85       	ldd	r25, Y+8	; 0x08
    1946:	a0 e0       	ldi	r26, 0x00	; 0
    1948:	b0 e0       	ldi	r27, 0x00	; 0
    194a:	b7 01       	movw	r22, r14
    194c:	a6 01       	movw	r20, r12
    194e:	68 94       	set
    1950:	14 f8       	bld	r1, 4
    1952:	76 95       	lsr	r23
    1954:	67 95       	ror	r22
    1956:	57 95       	ror	r21
    1958:	47 95       	ror	r20
    195a:	16 94       	lsr	r1
    195c:	d1 f7       	brne	.-12     	; 0x1952 <dir_next+0xa2>
    195e:	48 17       	cp	r20, r24
    1960:	59 07       	cpc	r21, r25
    1962:	6a 07       	cpc	r22, r26
    1964:	7b 07       	cpc	r23, r27
    1966:	08 f4       	brcc	.+2      	; 0x196a <dir_next+0xba>
    1968:	71 c0       	rjmp	.+226    	; 0x1a4c <dir_next+0x19c>
    196a:	16 8a       	std	Z+22, r1	; 0x16
    196c:	17 8a       	std	Z+23, r1	; 0x17
    196e:	10 8e       	std	Z+24, r1	; 0x18
    1970:	11 8e       	std	Z+25, r1	; 0x19
    1972:	84 e0       	ldi	r24, 0x04	; 4
    1974:	87 c0       	rjmp	.+270    	; 0x1a84 <dir_next+0x1d4>
    1976:	89 85       	ldd	r24, Y+9	; 0x09
    1978:	9a 85       	ldd	r25, Y+10	; 0x0a
    197a:	01 97       	sbiw	r24, 0x01	; 1
    197c:	2c 01       	movw	r4, r24
    197e:	61 2c       	mov	r6, r1
    1980:	71 2c       	mov	r7, r1
    1982:	d7 01       	movw	r26, r14
    1984:	c6 01       	movw	r24, r12
    1986:	07 2e       	mov	r0, r23
    1988:	79 e0       	ldi	r23, 0x09	; 9
    198a:	b6 95       	lsr	r27
    198c:	a7 95       	ror	r26
    198e:	97 95       	ror	r25
    1990:	87 95       	ror	r24
    1992:	7a 95       	dec	r23
    1994:	d1 f7       	brne	.-12     	; 0x198a <dir_next+0xda>
    1996:	70 2d       	mov	r23, r0
    1998:	84 21       	and	r24, r4
    199a:	95 21       	and	r25, r5
    199c:	a6 21       	and	r26, r6
    199e:	b7 21       	and	r27, r7
    19a0:	89 2b       	or	r24, r25
    19a2:	8a 2b       	or	r24, r26
    19a4:	8b 2b       	or	r24, r27
    19a6:	09 f0       	breq	.+2      	; 0x19aa <dir_next+0xfa>
    19a8:	51 c0       	rjmp	.+162    	; 0x1a4c <dir_next+0x19c>
    19aa:	cf 01       	movw	r24, r30
    19ac:	87 db       	rcall	.-2290   	; 0x10bc <get_fat>
    19ae:	2b 01       	movw	r4, r22
    19b0:	3c 01       	movw	r6, r24
    19b2:	62 30       	cpi	r22, 0x02	; 2
    19b4:	71 05       	cpc	r23, r1
    19b6:	81 05       	cpc	r24, r1
    19b8:	91 05       	cpc	r25, r1
    19ba:	08 f4       	brcc	.+2      	; 0x19be <dir_next+0x10e>
    19bc:	58 c0       	rjmp	.+176    	; 0x1a6e <dir_next+0x1be>
    19be:	8f ef       	ldi	r24, 0xFF	; 255
    19c0:	48 16       	cp	r4, r24
    19c2:	58 06       	cpc	r5, r24
    19c4:	68 06       	cpc	r6, r24
    19c6:	78 06       	cpc	r7, r24
    19c8:	09 f4       	brne	.+2      	; 0x19cc <dir_next+0x11c>
    19ca:	53 c0       	rjmp	.+166    	; 0x1a72 <dir_next+0x1c2>
    19cc:	8b 89       	ldd	r24, Y+19	; 0x13
    19ce:	9c 89       	ldd	r25, Y+20	; 0x14
    19d0:	ad 89       	ldd	r26, Y+21	; 0x15
    19d2:	be 89       	ldd	r27, Y+22	; 0x16
    19d4:	48 16       	cp	r4, r24
    19d6:	59 06       	cpc	r5, r25
    19d8:	6a 06       	cpc	r6, r26
    19da:	7b 06       	cpc	r7, r27
    19dc:	40 f1       	brcs	.+80     	; 0x1a2e <dir_next+0x17e>
    19de:	01 2b       	or	r16, r17
    19e0:	39 f4       	brne	.+14     	; 0x19f0 <dir_next+0x140>
    19e2:	f5 01       	movw	r30, r10
    19e4:	16 8a       	std	Z+22, r1	; 0x16
    19e6:	17 8a       	std	Z+23, r1	; 0x17
    19e8:	10 8e       	std	Z+24, r1	; 0x18
    19ea:	11 8e       	std	Z+25, r1	; 0x19
    19ec:	84 e0       	ldi	r24, 0x04	; 4
    19ee:	4a c0       	rjmp	.+148    	; 0x1a84 <dir_next+0x1d4>
    19f0:	f5 01       	movw	r30, r10
    19f2:	42 89       	ldd	r20, Z+18	; 0x12
    19f4:	53 89       	ldd	r21, Z+19	; 0x13
    19f6:	64 89       	ldd	r22, Z+20	; 0x14
    19f8:	75 89       	ldd	r23, Z+21	; 0x15
    19fa:	c5 01       	movw	r24, r10
    19fc:	22 dd       	rcall	.-1468   	; 0x1442 <create_chain>
    19fe:	2b 01       	movw	r4, r22
    1a00:	3c 01       	movw	r6, r24
    1a02:	61 15       	cp	r22, r1
    1a04:	71 05       	cpc	r23, r1
    1a06:	81 05       	cpc	r24, r1
    1a08:	91 05       	cpc	r25, r1
    1a0a:	a9 f1       	breq	.+106    	; 0x1a76 <dir_next+0x1c6>
    1a0c:	61 30       	cpi	r22, 0x01	; 1
    1a0e:	71 05       	cpc	r23, r1
    1a10:	81 05       	cpc	r24, r1
    1a12:	91 05       	cpc	r25, r1
    1a14:	91 f1       	breq	.+100    	; 0x1a7a <dir_next+0x1ca>
    1a16:	8f ef       	ldi	r24, 0xFF	; 255
    1a18:	48 16       	cp	r4, r24
    1a1a:	58 06       	cpc	r5, r24
    1a1c:	68 06       	cpc	r6, r24
    1a1e:	78 06       	cpc	r7, r24
    1a20:	71 f1       	breq	.+92     	; 0x1a7e <dir_next+0x1ce>
    1a22:	b3 01       	movw	r22, r6
    1a24:	a2 01       	movw	r20, r4
    1a26:	ce 01       	movw	r24, r28
    1a28:	ea de       	rcall	.-556    	; 0x17fe <dir_clear>
    1a2a:	81 11       	cpse	r24, r1
    1a2c:	2a c0       	rjmp	.+84     	; 0x1a82 <dir_next+0x1d2>
    1a2e:	f5 01       	movw	r30, r10
    1a30:	42 8a       	std	Z+18, r4	; 0x12
    1a32:	53 8a       	std	Z+19, r5	; 0x13
    1a34:	64 8a       	std	Z+20, r6	; 0x14
    1a36:	75 8a       	std	Z+21, r7	; 0x15
    1a38:	b3 01       	movw	r22, r6
    1a3a:	a2 01       	movw	r20, r4
    1a3c:	ce 01       	movw	r24, r28
    1a3e:	0e 94 30 01 	call	0x260	; 0x260 <clst2sect>
    1a42:	f5 01       	movw	r30, r10
    1a44:	66 8b       	std	Z+22, r22	; 0x16
    1a46:	77 8b       	std	Z+23, r23	; 0x17
    1a48:	80 8f       	std	Z+24, r24	; 0x18
    1a4a:	91 8f       	std	Z+25, r25	; 0x19
    1a4c:	f5 01       	movw	r30, r10
    1a4e:	c6 86       	std	Z+14, r12	; 0x0e
    1a50:	d7 86       	std	Z+15, r13	; 0x0f
    1a52:	e0 8a       	std	Z+16, r14	; 0x10
    1a54:	f1 8a       	std	Z+17, r15	; 0x11
    1a56:	af 96       	adiw	r28, 0x2f	; 47
    1a58:	f1 e0       	ldi	r31, 0x01	; 1
    1a5a:	df 22       	and	r13, r31
    1a5c:	cc 0e       	add	r12, r28
    1a5e:	dd 1e       	adc	r13, r29
    1a60:	f5 01       	movw	r30, r10
    1a62:	d3 8e       	std	Z+27, r13	; 0x1b
    1a64:	c2 8e       	std	Z+26, r12	; 0x1a
    1a66:	80 e0       	ldi	r24, 0x00	; 0
    1a68:	0d c0       	rjmp	.+26     	; 0x1a84 <dir_next+0x1d4>
    1a6a:	84 e0       	ldi	r24, 0x04	; 4
    1a6c:	0b c0       	rjmp	.+22     	; 0x1a84 <dir_next+0x1d4>
    1a6e:	82 e0       	ldi	r24, 0x02	; 2
    1a70:	09 c0       	rjmp	.+18     	; 0x1a84 <dir_next+0x1d4>
    1a72:	81 e0       	ldi	r24, 0x01	; 1
    1a74:	07 c0       	rjmp	.+14     	; 0x1a84 <dir_next+0x1d4>
    1a76:	87 e0       	ldi	r24, 0x07	; 7
    1a78:	05 c0       	rjmp	.+10     	; 0x1a84 <dir_next+0x1d4>
    1a7a:	82 e0       	ldi	r24, 0x02	; 2
    1a7c:	03 c0       	rjmp	.+6      	; 0x1a84 <dir_next+0x1d4>
    1a7e:	81 e0       	ldi	r24, 0x01	; 1
    1a80:	01 c0       	rjmp	.+2      	; 0x1a84 <dir_next+0x1d4>
    1a82:	81 e0       	ldi	r24, 0x01	; 1
    1a84:	df 91       	pop	r29
    1a86:	cf 91       	pop	r28
    1a88:	1f 91       	pop	r17
    1a8a:	0f 91       	pop	r16
    1a8c:	ff 90       	pop	r15
    1a8e:	ef 90       	pop	r14
    1a90:	df 90       	pop	r13
    1a92:	cf 90       	pop	r12
    1a94:	bf 90       	pop	r11
    1a96:	af 90       	pop	r10
    1a98:	7f 90       	pop	r7
    1a9a:	6f 90       	pop	r6
    1a9c:	5f 90       	pop	r5
    1a9e:	4f 90       	pop	r4
    1aa0:	08 95       	ret

00001aa2 <dir_find>:
    1aa2:	ef 92       	push	r14
    1aa4:	ff 92       	push	r15
    1aa6:	1f 93       	push	r17
    1aa8:	cf 93       	push	r28
    1aaa:	df 93       	push	r29
    1aac:	ec 01       	movw	r28, r24
    1aae:	e8 80       	ld	r14, Y
    1ab0:	f9 80       	ldd	r15, Y+1	; 0x01
    1ab2:	40 e0       	ldi	r20, 0x00	; 0
    1ab4:	50 e0       	ldi	r21, 0x00	; 0
    1ab6:	ba 01       	movw	r22, r20
    1ab8:	df db       	rcall	.-2114   	; 0x1278 <dir_sdi>
    1aba:	81 11       	cpse	r24, r1
    1abc:	2a c0       	rjmp	.+84     	; 0x1b12 <dir_find+0x70>
    1abe:	4e 89       	ldd	r20, Y+22	; 0x16
    1ac0:	5f 89       	ldd	r21, Y+23	; 0x17
    1ac2:	68 8d       	ldd	r22, Y+24	; 0x18
    1ac4:	79 8d       	ldd	r23, Y+25	; 0x19
    1ac6:	c7 01       	movw	r24, r14
    1ac8:	0e 94 95 03 	call	0x72a	; 0x72a <move_window>
    1acc:	18 2f       	mov	r17, r24
    1ace:	81 11       	cpse	r24, r1
    1ad0:	1c c0       	rjmp	.+56     	; 0x1b0a <dir_find+0x68>
    1ad2:	ea 8d       	ldd	r30, Y+26	; 0x1a
    1ad4:	fb 8d       	ldd	r31, Y+27	; 0x1b
    1ad6:	80 81       	ld	r24, Z
    1ad8:	88 23       	and	r24, r24
    1ada:	c1 f0       	breq	.+48     	; 0x1b0c <dir_find+0x6a>
    1adc:	83 85       	ldd	r24, Z+11	; 0x0b
    1ade:	8f 73       	andi	r24, 0x3F	; 63
    1ae0:	8c 83       	std	Y+4, r24	; 0x04
    1ae2:	83 85       	ldd	r24, Z+11	; 0x0b
    1ae4:	83 fd       	sbrc	r24, 3
    1ae6:	0a c0       	rjmp	.+20     	; 0x1afc <dir_find+0x5a>
    1ae8:	4b e0       	ldi	r20, 0x0B	; 11
    1aea:	50 e0       	ldi	r21, 0x00	; 0
    1aec:	be 01       	movw	r22, r28
    1aee:	64 5e       	subi	r22, 0xE4	; 228
    1af0:	7f 4f       	sbci	r23, 0xFF	; 255
    1af2:	cf 01       	movw	r24, r30
    1af4:	0e 94 db 00 	call	0x1b6	; 0x1b6 <mem_cmp>
    1af8:	89 2b       	or	r24, r25
    1afa:	51 f0       	breq	.+20     	; 0x1b10 <dir_find+0x6e>
    1afc:	60 e0       	ldi	r22, 0x00	; 0
    1afe:	70 e0       	ldi	r23, 0x00	; 0
    1b00:	ce 01       	movw	r24, r28
    1b02:	d6 de       	rcall	.-596    	; 0x18b0 <dir_next>
    1b04:	88 23       	and	r24, r24
    1b06:	d9 f2       	breq	.-74     	; 0x1abe <dir_find+0x1c>
    1b08:	04 c0       	rjmp	.+8      	; 0x1b12 <dir_find+0x70>
    1b0a:	03 c0       	rjmp	.+6      	; 0x1b12 <dir_find+0x70>
    1b0c:	84 e0       	ldi	r24, 0x04	; 4
    1b0e:	01 c0       	rjmp	.+2      	; 0x1b12 <dir_find+0x70>
    1b10:	81 2f       	mov	r24, r17
    1b12:	df 91       	pop	r29
    1b14:	cf 91       	pop	r28
    1b16:	1f 91       	pop	r17
    1b18:	ff 90       	pop	r15
    1b1a:	ef 90       	pop	r14
    1b1c:	08 95       	ret

00001b1e <follow_path>:
    1b1e:	ef 92       	push	r14
    1b20:	ff 92       	push	r15
    1b22:	0f 93       	push	r16
    1b24:	1f 93       	push	r17
    1b26:	cf 93       	push	r28
    1b28:	df 93       	push	r29
    1b2a:	1f 92       	push	r1
    1b2c:	1f 92       	push	r1
    1b2e:	cd b7       	in	r28, 0x3d	; 61
    1b30:	de b7       	in	r29, 0x3e	; 62
    1b32:	8c 01       	movw	r16, r24
    1b34:	7a 83       	std	Y+2, r23	; 0x02
    1b36:	69 83       	std	Y+1, r22	; 0x01
    1b38:	dc 01       	movw	r26, r24
    1b3a:	ed 90       	ld	r14, X+
    1b3c:	fc 90       	ld	r15, X
    1b3e:	03 c0       	rjmp	.+6      	; 0x1b46 <follow_path+0x28>
    1b40:	31 96       	adiw	r30, 0x01	; 1
    1b42:	fa 83       	std	Y+2, r31	; 0x02
    1b44:	e9 83       	std	Y+1, r30	; 0x01
    1b46:	e9 81       	ldd	r30, Y+1	; 0x01
    1b48:	fa 81       	ldd	r31, Y+2	; 0x02
    1b4a:	80 81       	ld	r24, Z
    1b4c:	8f 32       	cpi	r24, 0x2F	; 47
    1b4e:	c1 f3       	breq	.-16     	; 0x1b40 <follow_path+0x22>
    1b50:	8c 35       	cpi	r24, 0x5C	; 92
    1b52:	b1 f3       	breq	.-20     	; 0x1b40 <follow_path+0x22>
    1b54:	d8 01       	movw	r26, r16
    1b56:	16 96       	adiw	r26, 0x06	; 6
    1b58:	1d 92       	st	X+, r1
    1b5a:	1d 92       	st	X+, r1
    1b5c:	1d 92       	st	X+, r1
    1b5e:	1c 92       	st	X, r1
    1b60:	19 97       	sbiw	r26, 0x09	; 9
    1b62:	80 81       	ld	r24, Z
    1b64:	80 32       	cpi	r24, 0x20	; 32
    1b66:	48 f4       	brcc	.+18     	; 0x1b7a <follow_path+0x5c>
    1b68:	80 e8       	ldi	r24, 0x80	; 128
    1b6a:	97 96       	adiw	r26, 0x27	; 39
    1b6c:	8c 93       	st	X, r24
    1b6e:	40 e0       	ldi	r20, 0x00	; 0
    1b70:	50 e0       	ldi	r21, 0x00	; 0
    1b72:	ba 01       	movw	r22, r20
    1b74:	c8 01       	movw	r24, r16
    1b76:	80 db       	rcall	.-2304   	; 0x1278 <dir_sdi>
    1b78:	31 c0       	rjmp	.+98     	; 0x1bdc <follow_path+0xbe>
    1b7a:	be 01       	movw	r22, r28
    1b7c:	6f 5f       	subi	r22, 0xFF	; 255
    1b7e:	7f 4f       	sbci	r23, 0xFF	; 255
    1b80:	c8 01       	movw	r24, r16
    1b82:	0e 94 07 02 	call	0x40e	; 0x40e <create_name>
    1b86:	81 11       	cpse	r24, r1
    1b88:	29 c0       	rjmp	.+82     	; 0x1bdc <follow_path+0xbe>
    1b8a:	c8 01       	movw	r24, r16
    1b8c:	8a df       	rcall	.-236    	; 0x1aa2 <dir_find>
    1b8e:	f8 01       	movw	r30, r16
    1b90:	97 a1       	ldd	r25, Z+39	; 0x27
    1b92:	88 23       	and	r24, r24
    1b94:	29 f0       	breq	.+10     	; 0x1ba0 <follow_path+0x82>
    1b96:	84 30       	cpi	r24, 0x04	; 4
    1b98:	09 f5       	brne	.+66     	; 0x1bdc <follow_path+0xbe>
    1b9a:	92 ff       	sbrs	r25, 2
    1b9c:	1c c0       	rjmp	.+56     	; 0x1bd6 <follow_path+0xb8>
    1b9e:	1e c0       	rjmp	.+60     	; 0x1bdc <follow_path+0xbe>
    1ba0:	92 fd       	sbrc	r25, 2
    1ba2:	1c c0       	rjmp	.+56     	; 0x1bdc <follow_path+0xbe>
    1ba4:	d8 01       	movw	r26, r16
    1ba6:	84 81       	ldd	r24, Z+4	; 0x04
    1ba8:	84 ff       	sbrs	r24, 4
    1baa:	17 c0       	rjmp	.+46     	; 0x1bda <follow_path+0xbc>
    1bac:	1e 96       	adiw	r26, 0x0e	; 14
    1bae:	8d 91       	ld	r24, X+
    1bb0:	9d 91       	ld	r25, X+
    1bb2:	0d 90       	ld	r0, X+
    1bb4:	bc 91       	ld	r27, X
    1bb6:	a0 2d       	mov	r26, r0
    1bb8:	91 70       	andi	r25, 0x01	; 1
    1bba:	b7 01       	movw	r22, r14
    1bbc:	61 5d       	subi	r22, 0xD1	; 209
    1bbe:	7f 4f       	sbci	r23, 0xFF	; 255
    1bc0:	68 0f       	add	r22, r24
    1bc2:	79 1f       	adc	r23, r25
    1bc4:	c7 01       	movw	r24, r14
    1bc6:	0e 94 5e 01 	call	0x2bc	; 0x2bc <ld_clust>
    1bca:	f8 01       	movw	r30, r16
    1bcc:	66 83       	std	Z+6, r22	; 0x06
    1bce:	77 83       	std	Z+7, r23	; 0x07
    1bd0:	80 87       	std	Z+8, r24	; 0x08
    1bd2:	91 87       	std	Z+9, r25	; 0x09
    1bd4:	d2 cf       	rjmp	.-92     	; 0x1b7a <follow_path+0x5c>
    1bd6:	85 e0       	ldi	r24, 0x05	; 5
    1bd8:	01 c0       	rjmp	.+2      	; 0x1bdc <follow_path+0xbe>
    1bda:	85 e0       	ldi	r24, 0x05	; 5
    1bdc:	0f 90       	pop	r0
    1bde:	0f 90       	pop	r0
    1be0:	df 91       	pop	r29
    1be2:	cf 91       	pop	r28
    1be4:	1f 91       	pop	r17
    1be6:	0f 91       	pop	r16
    1be8:	ff 90       	pop	r15
    1bea:	ef 90       	pop	r14
    1bec:	08 95       	ret

00001bee <dir_alloc>:
    1bee:	cf 92       	push	r12
    1bf0:	df 92       	push	r13
    1bf2:	ef 92       	push	r14
    1bf4:	ff 92       	push	r15
    1bf6:	0f 93       	push	r16
    1bf8:	1f 93       	push	r17
    1bfa:	cf 93       	push	r28
    1bfc:	df 93       	push	r29
    1bfe:	ec 01       	movw	r28, r24
    1c00:	6b 01       	movw	r12, r22
    1c02:	e8 80       	ld	r14, Y
    1c04:	f9 80       	ldd	r15, Y+1	; 0x01
    1c06:	40 e0       	ldi	r20, 0x00	; 0
    1c08:	50 e0       	ldi	r21, 0x00	; 0
    1c0a:	ba 01       	movw	r22, r20
    1c0c:	35 db       	rcall	.-2454   	; 0x1278 <dir_sdi>
    1c0e:	81 11       	cpse	r24, r1
    1c10:	20 c0       	rjmp	.+64     	; 0x1c52 <dir_alloc+0x64>
    1c12:	00 e0       	ldi	r16, 0x00	; 0
    1c14:	10 e0       	ldi	r17, 0x00	; 0
    1c16:	4e 89       	ldd	r20, Y+22	; 0x16
    1c18:	5f 89       	ldd	r21, Y+23	; 0x17
    1c1a:	68 8d       	ldd	r22, Y+24	; 0x18
    1c1c:	79 8d       	ldd	r23, Y+25	; 0x19
    1c1e:	c7 01       	movw	r24, r14
    1c20:	0e 94 95 03 	call	0x72a	; 0x72a <move_window>
    1c24:	81 11       	cpse	r24, r1
    1c26:	15 c0       	rjmp	.+42     	; 0x1c52 <dir_alloc+0x64>
    1c28:	ea 8d       	ldd	r30, Y+26	; 0x1a
    1c2a:	fb 8d       	ldd	r31, Y+27	; 0x1b
    1c2c:	90 81       	ld	r25, Z
    1c2e:	95 3e       	cpi	r25, 0xE5	; 229
    1c30:	11 f0       	breq	.+4      	; 0x1c36 <dir_alloc+0x48>
    1c32:	91 11       	cpse	r25, r1
    1c34:	06 c0       	rjmp	.+12     	; 0x1c42 <dir_alloc+0x54>
    1c36:	0f 5f       	subi	r16, 0xFF	; 255
    1c38:	1f 4f       	sbci	r17, 0xFF	; 255
    1c3a:	0c 15       	cp	r16, r12
    1c3c:	1d 05       	cpc	r17, r13
    1c3e:	19 f4       	brne	.+6      	; 0x1c46 <dir_alloc+0x58>
    1c40:	08 c0       	rjmp	.+16     	; 0x1c52 <dir_alloc+0x64>
    1c42:	00 e0       	ldi	r16, 0x00	; 0
    1c44:	10 e0       	ldi	r17, 0x00	; 0
    1c46:	61 e0       	ldi	r22, 0x01	; 1
    1c48:	70 e0       	ldi	r23, 0x00	; 0
    1c4a:	ce 01       	movw	r24, r28
    1c4c:	31 de       	rcall	.-926    	; 0x18b0 <dir_next>
    1c4e:	88 23       	and	r24, r24
    1c50:	11 f3       	breq	.-60     	; 0x1c16 <dir_alloc+0x28>
    1c52:	84 30       	cpi	r24, 0x04	; 4
    1c54:	09 f4       	brne	.+2      	; 0x1c58 <dir_alloc+0x6a>
    1c56:	87 e0       	ldi	r24, 0x07	; 7
    1c58:	df 91       	pop	r29
    1c5a:	cf 91       	pop	r28
    1c5c:	1f 91       	pop	r17
    1c5e:	0f 91       	pop	r16
    1c60:	ff 90       	pop	r15
    1c62:	ef 90       	pop	r14
    1c64:	df 90       	pop	r13
    1c66:	cf 90       	pop	r12
    1c68:	08 95       	ret

00001c6a <dir_register>:
    1c6a:	ef 92       	push	r14
    1c6c:	ff 92       	push	r15
    1c6e:	1f 93       	push	r17
    1c70:	cf 93       	push	r28
    1c72:	df 93       	push	r29
    1c74:	ec 01       	movw	r28, r24
    1c76:	e8 80       	ld	r14, Y
    1c78:	f9 80       	ldd	r15, Y+1	; 0x01
    1c7a:	61 e0       	ldi	r22, 0x01	; 1
    1c7c:	70 e0       	ldi	r23, 0x00	; 0
    1c7e:	b7 df       	rcall	.-146    	; 0x1bee <dir_alloc>
    1c80:	18 2f       	mov	r17, r24
    1c82:	81 11       	cpse	r24, r1
    1c84:	1e c0       	rjmp	.+60     	; 0x1cc2 <dir_register+0x58>
    1c86:	4e 89       	ldd	r20, Y+22	; 0x16
    1c88:	5f 89       	ldd	r21, Y+23	; 0x17
    1c8a:	68 8d       	ldd	r22, Y+24	; 0x18
    1c8c:	79 8d       	ldd	r23, Y+25	; 0x19
    1c8e:	c7 01       	movw	r24, r14
    1c90:	0e 94 95 03 	call	0x72a	; 0x72a <move_window>
    1c94:	18 2f       	mov	r17, r24
    1c96:	81 11       	cpse	r24, r1
    1c98:	14 c0       	rjmp	.+40     	; 0x1cc2 <dir_register+0x58>
    1c9a:	40 e2       	ldi	r20, 0x20	; 32
    1c9c:	50 e0       	ldi	r21, 0x00	; 0
    1c9e:	60 e0       	ldi	r22, 0x00	; 0
    1ca0:	70 e0       	ldi	r23, 0x00	; 0
    1ca2:	8a 8d       	ldd	r24, Y+26	; 0x1a
    1ca4:	9b 8d       	ldd	r25, Y+27	; 0x1b
    1ca6:	0e 94 d2 00 	call	0x1a4	; 0x1a4 <mem_set>
    1caa:	be 01       	movw	r22, r28
    1cac:	64 5e       	subi	r22, 0xE4	; 228
    1cae:	7f 4f       	sbci	r23, 0xFF	; 255
    1cb0:	4b e0       	ldi	r20, 0x0B	; 11
    1cb2:	50 e0       	ldi	r21, 0x00	; 0
    1cb4:	8a 8d       	ldd	r24, Y+26	; 0x1a
    1cb6:	9b 8d       	ldd	r25, Y+27	; 0x1b
    1cb8:	0e 94 c3 00 	call	0x186	; 0x186 <mem_cpy>
    1cbc:	81 e0       	ldi	r24, 0x01	; 1
    1cbe:	f7 01       	movw	r30, r14
    1cc0:	83 83       	std	Z+3, r24	; 0x03
    1cc2:	81 2f       	mov	r24, r17
    1cc4:	df 91       	pop	r29
    1cc6:	cf 91       	pop	r28
    1cc8:	1f 91       	pop	r17
    1cca:	ff 90       	pop	r15
    1ccc:	ef 90       	pop	r14
    1cce:	08 95       	ret

00001cd0 <sync_fs>:
    1cd0:	cf 92       	push	r12
    1cd2:	df 92       	push	r13
    1cd4:	ff 92       	push	r15
    1cd6:	0f 93       	push	r16
    1cd8:	1f 93       	push	r17
    1cda:	cf 93       	push	r28
    1cdc:	df 93       	push	r29
    1cde:	ec 01       	movw	r28, r24
    1ce0:	0e 94 3b 03 	call	0x676	; 0x676 <sync_window>
    1ce4:	f8 2e       	mov	r15, r24
    1ce6:	81 11       	cpse	r24, r1
    1ce8:	59 c0       	rjmp	.+178    	; 0x1d9c <sync_fs+0xcc>
    1cea:	88 81       	ld	r24, Y
    1cec:	83 30       	cpi	r24, 0x03	; 3
    1cee:	09 f0       	breq	.+2      	; 0x1cf2 <sync_fs+0x22>
    1cf0:	4c c0       	rjmp	.+152    	; 0x1d8a <sync_fs+0xba>
    1cf2:	8c 81       	ldd	r24, Y+4	; 0x04
    1cf4:	81 30       	cpi	r24, 0x01	; 1
    1cf6:	09 f0       	breq	.+2      	; 0x1cfa <sync_fs+0x2a>
    1cf8:	48 c0       	rjmp	.+144    	; 0x1d8a <sync_fs+0xba>
    1cfa:	40 e0       	ldi	r20, 0x00	; 0
    1cfc:	52 e0       	ldi	r21, 0x02	; 2
    1cfe:	60 e0       	ldi	r22, 0x00	; 0
    1d00:	70 e0       	ldi	r23, 0x00	; 0
    1d02:	6e 01       	movw	r12, r28
    1d04:	8f e2       	ldi	r24, 0x2F	; 47
    1d06:	c8 0e       	add	r12, r24
    1d08:	d1 1c       	adc	r13, r1
    1d0a:	c6 01       	movw	r24, r12
    1d0c:	0e 94 d2 00 	call	0x1a4	; 0x1a4 <mem_set>
    1d10:	65 e5       	ldi	r22, 0x55	; 85
    1d12:	7a ea       	ldi	r23, 0xAA	; 170
    1d14:	ce 01       	movw	r24, r28
    1d16:	83 5d       	subi	r24, 0xD3	; 211
    1d18:	9d 4f       	sbci	r25, 0xFD	; 253
    1d1a:	0e 94 b9 00 	call	0x172	; 0x172 <st_word>
    1d1e:	42 e5       	ldi	r20, 0x52	; 82
    1d20:	52 e5       	ldi	r21, 0x52	; 82
    1d22:	61 e6       	ldi	r22, 0x61	; 97
    1d24:	71 e4       	ldi	r23, 0x41	; 65
    1d26:	c6 01       	movw	r24, r12
    1d28:	0e 94 bd 00 	call	0x17a	; 0x17a <st_dword>
    1d2c:	42 e7       	ldi	r20, 0x72	; 114
    1d2e:	52 e7       	ldi	r21, 0x72	; 114
    1d30:	61 e4       	ldi	r22, 0x41	; 65
    1d32:	71 e6       	ldi	r23, 0x61	; 97
    1d34:	ce 01       	movw	r24, r28
    1d36:	8d 5e       	subi	r24, 0xED	; 237
    1d38:	9d 4f       	sbci	r25, 0xFD	; 253
    1d3a:	0e 94 bd 00 	call	0x17a	; 0x17a <st_dword>
    1d3e:	4f 85       	ldd	r20, Y+15	; 0x0f
    1d40:	58 89       	ldd	r21, Y+16	; 0x10
    1d42:	69 89       	ldd	r22, Y+17	; 0x11
    1d44:	7a 89       	ldd	r23, Y+18	; 0x12
    1d46:	ce 01       	movw	r24, r28
    1d48:	89 5e       	subi	r24, 0xE9	; 233
    1d4a:	9d 4f       	sbci	r25, 0xFD	; 253
    1d4c:	0e 94 bd 00 	call	0x17a	; 0x17a <st_dword>
    1d50:	4b 85       	ldd	r20, Y+11	; 0x0b
    1d52:	5c 85       	ldd	r21, Y+12	; 0x0c
    1d54:	6d 85       	ldd	r22, Y+13	; 0x0d
    1d56:	7e 85       	ldd	r23, Y+14	; 0x0e
    1d58:	ce 01       	movw	r24, r28
    1d5a:	85 5e       	subi	r24, 0xE5	; 229
    1d5c:	9d 4f       	sbci	r25, 0xFD	; 253
    1d5e:	0e 94 bd 00 	call	0x17a	; 0x17a <st_dword>
    1d62:	8b 8d       	ldd	r24, Y+27	; 0x1b
    1d64:	9c 8d       	ldd	r25, Y+28	; 0x1c
    1d66:	ad 8d       	ldd	r26, Y+29	; 0x1d
    1d68:	be 8d       	ldd	r27, Y+30	; 0x1e
    1d6a:	9c 01       	movw	r18, r24
    1d6c:	ad 01       	movw	r20, r26
    1d6e:	2f 5f       	subi	r18, 0xFF	; 255
    1d70:	3f 4f       	sbci	r19, 0xFF	; 255
    1d72:	4f 4f       	sbci	r20, 0xFF	; 255
    1d74:	5f 4f       	sbci	r21, 0xFF	; 255
    1d76:	2b a7       	std	Y+43, r18	; 0x2b
    1d78:	3c a7       	std	Y+44, r19	; 0x2c
    1d7a:	4d a7       	std	Y+45, r20	; 0x2d
    1d7c:	5e a7       	std	Y+46, r21	; 0x2e
    1d7e:	01 e0       	ldi	r16, 0x01	; 1
    1d80:	10 e0       	ldi	r17, 0x00	; 0
    1d82:	b6 01       	movw	r22, r12
    1d84:	89 81       	ldd	r24, Y+1	; 0x01
    1d86:	8d d6       	rcall	.+3354   	; 0x2aa2 <disk_write>
    1d88:	1c 82       	std	Y+4, r1	; 0x04
    1d8a:	40 e0       	ldi	r20, 0x00	; 0
    1d8c:	50 e0       	ldi	r21, 0x00	; 0
    1d8e:	60 e0       	ldi	r22, 0x00	; 0
    1d90:	89 81       	ldd	r24, Y+1	; 0x01
    1d92:	c7 d6       	rcall	.+3470   	; 0x2b22 <disk_ioctl>
    1d94:	88 23       	and	r24, r24
    1d96:	11 f0       	breq	.+4      	; 0x1d9c <sync_fs+0xcc>
    1d98:	ff 24       	eor	r15, r15
    1d9a:	f3 94       	inc	r15
    1d9c:	8f 2d       	mov	r24, r15
    1d9e:	df 91       	pop	r29
    1da0:	cf 91       	pop	r28
    1da2:	1f 91       	pop	r17
    1da4:	0f 91       	pop	r16
    1da6:	ff 90       	pop	r15
    1da8:	df 90       	pop	r13
    1daa:	cf 90       	pop	r12
    1dac:	08 95       	ret

00001dae <f_mount>:
    1dae:	1f 93       	push	r17
    1db0:	cf 93       	push	r28
    1db2:	df 93       	push	r29
    1db4:	00 d0       	rcall	.+0      	; 0x1db6 <f_mount+0x8>
    1db6:	00 d0       	rcall	.+0      	; 0x1db8 <f_mount+0xa>
    1db8:	cd b7       	in	r28, 0x3d	; 61
    1dba:	de b7       	in	r29, 0x3e	; 62
    1dbc:	9c 83       	std	Y+4, r25	; 0x04
    1dbe:	8b 83       	std	Y+3, r24	; 0x03
    1dc0:	7e 83       	std	Y+6, r23	; 0x06
    1dc2:	6d 83       	std	Y+5, r22	; 0x05
    1dc4:	14 2f       	mov	r17, r20
    1dc6:	7a 83       	std	Y+2, r23	; 0x02
    1dc8:	69 83       	std	Y+1, r22	; 0x01
    1dca:	ce 01       	movw	r24, r28
    1dcc:	01 96       	adiw	r24, 0x01	; 1
    1dce:	0e 94 ce 02 	call	0x59c	; 0x59c <get_ldnumber>
    1dd2:	99 23       	and	r25, r25
    1dd4:	24 f1       	brlt	.+72     	; 0x1e1e <f_mount+0x70>
    1dd6:	fc 01       	movw	r30, r24
    1dd8:	ee 0f       	add	r30, r30
    1dda:	ff 1f       	adc	r31, r31
    1ddc:	e4 5c       	subi	r30, 0xC4	; 196
    1dde:	fd 4f       	sbci	r31, 0xFD	; 253
    1de0:	01 90       	ld	r0, Z+
    1de2:	f0 81       	ld	r31, Z
    1de4:	e0 2d       	mov	r30, r0
    1de6:	30 97       	sbiw	r30, 0x00	; 0
    1de8:	09 f0       	breq	.+2      	; 0x1dec <f_mount+0x3e>
    1dea:	10 82       	st	Z, r1
    1dec:	eb 81       	ldd	r30, Y+3	; 0x03
    1dee:	fc 81       	ldd	r31, Y+4	; 0x04
    1df0:	30 97       	sbiw	r30, 0x00	; 0
    1df2:	09 f0       	breq	.+2      	; 0x1df6 <f_mount+0x48>
    1df4:	10 82       	st	Z, r1
    1df6:	88 0f       	add	r24, r24
    1df8:	99 1f       	adc	r25, r25
    1dfa:	fc 01       	movw	r30, r24
    1dfc:	e4 5c       	subi	r30, 0xC4	; 196
    1dfe:	fd 4f       	sbci	r31, 0xFD	; 253
    1e00:	8b 81       	ldd	r24, Y+3	; 0x03
    1e02:	9c 81       	ldd	r25, Y+4	; 0x04
    1e04:	91 83       	std	Z+1, r25	; 0x01
    1e06:	80 83       	st	Z, r24
    1e08:	11 23       	and	r17, r17
    1e0a:	59 f0       	breq	.+22     	; 0x1e22 <f_mount+0x74>
    1e0c:	40 e0       	ldi	r20, 0x00	; 0
    1e0e:	be 01       	movw	r22, r28
    1e10:	6d 5f       	subi	r22, 0xFD	; 253
    1e12:	7f 4f       	sbci	r23, 0xFF	; 255
    1e14:	ce 01       	movw	r24, r28
    1e16:	05 96       	adiw	r24, 0x05	; 5
    1e18:	0e 94 ca 04 	call	0x994	; 0x994 <mount_volume>
    1e1c:	03 c0       	rjmp	.+6      	; 0x1e24 <f_mount+0x76>
    1e1e:	8b e0       	ldi	r24, 0x0B	; 11
    1e20:	01 c0       	rjmp	.+2      	; 0x1e24 <f_mount+0x76>
    1e22:	80 e0       	ldi	r24, 0x00	; 0
    1e24:	26 96       	adiw	r28, 0x06	; 6
    1e26:	0f b6       	in	r0, 0x3f	; 63
    1e28:	f8 94       	cli
    1e2a:	de bf       	out	0x3e, r29	; 62
    1e2c:	0f be       	out	0x3f, r0	; 63
    1e2e:	cd bf       	out	0x3d, r28	; 61
    1e30:	df 91       	pop	r29
    1e32:	cf 91       	pop	r28
    1e34:	1f 91       	pop	r17
    1e36:	08 95       	ret

00001e38 <f_open>:
    1e38:	2f 92       	push	r2
    1e3a:	3f 92       	push	r3
    1e3c:	4f 92       	push	r4
    1e3e:	5f 92       	push	r5
    1e40:	6f 92       	push	r6
    1e42:	7f 92       	push	r7
    1e44:	8f 92       	push	r8
    1e46:	9f 92       	push	r9
    1e48:	af 92       	push	r10
    1e4a:	bf 92       	push	r11
    1e4c:	cf 92       	push	r12
    1e4e:	df 92       	push	r13
    1e50:	ef 92       	push	r14
    1e52:	ff 92       	push	r15
    1e54:	0f 93       	push	r16
    1e56:	1f 93       	push	r17
    1e58:	cf 93       	push	r28
    1e5a:	df 93       	push	r29
    1e5c:	cd b7       	in	r28, 0x3d	; 61
    1e5e:	de b7       	in	r29, 0x3e	; 62
    1e60:	ac 97       	sbiw	r28, 0x2c	; 44
    1e62:	0f b6       	in	r0, 0x3f	; 63
    1e64:	f8 94       	cli
    1e66:	de bf       	out	0x3e, r29	; 62
    1e68:	0f be       	out	0x3f, r0	; 63
    1e6a:	cd bf       	out	0x3d, r28	; 61
    1e6c:	7c a7       	std	Y+44, r23	; 0x2c
    1e6e:	6b a7       	std	Y+43, r22	; 0x2b
    1e70:	00 97       	sbiw	r24, 0x00	; 0
    1e72:	09 f4       	brne	.+2      	; 0x1e76 <f_open+0x3e>
    1e74:	88 c1       	rjmp	.+784    	; 0x2186 <__DATA_REGION_LENGTH__+0x186>
    1e76:	14 2f       	mov	r17, r20
    1e78:	6c 01       	movw	r12, r24
    1e7a:	84 2f       	mov	r24, r20
    1e7c:	8f 73       	andi	r24, 0x3F	; 63
    1e7e:	e8 2e       	mov	r14, r24
    1e80:	48 2f       	mov	r20, r24
    1e82:	be 01       	movw	r22, r28
    1e84:	67 5d       	subi	r22, 0xD7	; 215
    1e86:	7f 4f       	sbci	r23, 0xFF	; 255
    1e88:	ce 01       	movw	r24, r28
    1e8a:	8b 96       	adiw	r24, 0x2b	; 43
    1e8c:	0e 94 ca 04 	call	0x994	; 0x994 <mount_volume>
    1e90:	f8 2e       	mov	r15, r24
    1e92:	81 11       	cpse	r24, r1
    1e94:	71 c1       	rjmp	.+738    	; 0x2178 <__DATA_REGION_LENGTH__+0x178>
    1e96:	89 a5       	ldd	r24, Y+41	; 0x29
    1e98:	9a a5       	ldd	r25, Y+42	; 0x2a
    1e9a:	9a 83       	std	Y+2, r25	; 0x02
    1e9c:	89 83       	std	Y+1, r24	; 0x01
    1e9e:	6b a5       	ldd	r22, Y+43	; 0x2b
    1ea0:	7c a5       	ldd	r23, Y+44	; 0x2c
    1ea2:	ce 01       	movw	r24, r28
    1ea4:	01 96       	adiw	r24, 0x01	; 1
    1ea6:	3b de       	rcall	.-906    	; 0x1b1e <follow_path>
    1ea8:	f8 2e       	mov	r15, r24
    1eaa:	81 11       	cpse	r24, r1
    1eac:	07 c0       	rjmp	.+14     	; 0x1ebc <f_open+0x84>
    1eae:	88 a5       	ldd	r24, Y+40	; 0x28
    1eb0:	88 23       	and	r24, r24
    1eb2:	24 f4       	brge	.+8      	; 0x1ebc <f_open+0x84>
    1eb4:	0f 2e       	mov	r0, r31
    1eb6:	f6 e0       	ldi	r31, 0x06	; 6
    1eb8:	ff 2e       	mov	r15, r31
    1eba:	f0 2d       	mov	r31, r0
    1ebc:	81 2f       	mov	r24, r17
    1ebe:	8c 71       	andi	r24, 0x1C	; 28
    1ec0:	09 f4       	brne	.+2      	; 0x1ec4 <f_open+0x8c>
    1ec2:	78 c0       	rjmp	.+240    	; 0x1fb4 <f_open+0x17c>
    1ec4:	ff 20       	and	r15, r15
    1ec6:	59 f0       	breq	.+22     	; 0x1ede <f_open+0xa6>
    1ec8:	e4 e0       	ldi	r30, 0x04	; 4
    1eca:	fe 12       	cpse	r15, r30
    1ecc:	04 c0       	rjmp	.+8      	; 0x1ed6 <f_open+0x9e>
    1ece:	ce 01       	movw	r24, r28
    1ed0:	01 96       	adiw	r24, 0x01	; 1
    1ed2:	cb de       	rcall	.-618    	; 0x1c6a <dir_register>
    1ed4:	f8 2e       	mov	r15, r24
    1ed6:	fe 2d       	mov	r31, r14
    1ed8:	f8 60       	ori	r31, 0x08	; 8
    1eda:	ef 2e       	mov	r14, r31
    1edc:	0e c0       	rjmp	.+28     	; 0x1efa <f_open+0xc2>
    1ede:	8d 81       	ldd	r24, Y+5	; 0x05
    1ee0:	81 71       	andi	r24, 0x11	; 17
    1ee2:	19 f4       	brne	.+6      	; 0x1eea <f_open+0xb2>
    1ee4:	12 fd       	sbrc	r17, 2
    1ee6:	06 c0       	rjmp	.+12     	; 0x1ef4 <f_open+0xbc>
    1ee8:	08 c0       	rjmp	.+16     	; 0x1efa <f_open+0xc2>
    1eea:	0f 2e       	mov	r0, r31
    1eec:	f7 e0       	ldi	r31, 0x07	; 7
    1eee:	ff 2e       	mov	r15, r31
    1ef0:	f0 2d       	mov	r31, r0
    1ef2:	03 c0       	rjmp	.+6      	; 0x1efa <f_open+0xc2>
    1ef4:	68 94       	set
    1ef6:	ff 24       	eor	r15, r15
    1ef8:	f3 f8       	bld	r15, 3
    1efa:	f1 10       	cpse	r15, r1
    1efc:	6d c0       	rjmp	.+218    	; 0x1fd8 <f_open+0x1a0>
    1efe:	e3 fe       	sbrs	r14, 3
    1f00:	6b c0       	rjmp	.+214    	; 0x1fd8 <f_open+0x1a0>
    1f02:	3e d6       	rcall	.+3196   	; 0x2b80 <get_fattime>
    1f04:	4b 01       	movw	r8, r22
    1f06:	5c 01       	movw	r10, r24
    1f08:	8b 8d       	ldd	r24, Y+27	; 0x1b
    1f0a:	9c 8d       	ldd	r25, Y+28	; 0x1c
    1f0c:	b5 01       	movw	r22, r10
    1f0e:	a4 01       	movw	r20, r8
    1f10:	0e 96       	adiw	r24, 0x0e	; 14
    1f12:	0e 94 bd 00 	call	0x17a	; 0x17a <st_dword>
    1f16:	8b 8d       	ldd	r24, Y+27	; 0x1b
    1f18:	9c 8d       	ldd	r25, Y+28	; 0x1c
    1f1a:	b5 01       	movw	r22, r10
    1f1c:	a4 01       	movw	r20, r8
    1f1e:	46 96       	adiw	r24, 0x16	; 22
    1f20:	0e 94 bd 00 	call	0x17a	; 0x17a <st_dword>
    1f24:	8b 8c       	ldd	r8, Y+27	; 0x1b
    1f26:	9c 8c       	ldd	r9, Y+28	; 0x1c
    1f28:	a9 a4       	ldd	r10, Y+41	; 0x29
    1f2a:	ba a4       	ldd	r11, Y+42	; 0x2a
    1f2c:	b4 01       	movw	r22, r8
    1f2e:	c5 01       	movw	r24, r10
    1f30:	0e 94 5e 01 	call	0x2bc	; 0x2bc <ld_clust>
    1f34:	2b 01       	movw	r4, r22
    1f36:	3c 01       	movw	r6, r24
    1f38:	80 e2       	ldi	r24, 0x20	; 32
    1f3a:	f4 01       	movw	r30, r8
    1f3c:	83 87       	std	Z+11, r24	; 0x0b
    1f3e:	6b 8d       	ldd	r22, Y+27	; 0x1b
    1f40:	7c 8d       	ldd	r23, Y+28	; 0x1c
    1f42:	20 e0       	ldi	r18, 0x00	; 0
    1f44:	30 e0       	ldi	r19, 0x00	; 0
    1f46:	a9 01       	movw	r20, r18
    1f48:	c5 01       	movw	r24, r10
    1f4a:	0e 94 89 01 	call	0x312	; 0x312 <st_clust>
    1f4e:	8b 8d       	ldd	r24, Y+27	; 0x1b
    1f50:	9c 8d       	ldd	r25, Y+28	; 0x1c
    1f52:	40 e0       	ldi	r20, 0x00	; 0
    1f54:	50 e0       	ldi	r21, 0x00	; 0
    1f56:	ba 01       	movw	r22, r20
    1f58:	4c 96       	adiw	r24, 0x1c	; 28
    1f5a:	0e 94 bd 00 	call	0x17a	; 0x17a <st_dword>
    1f5e:	e9 a5       	ldd	r30, Y+41	; 0x29
    1f60:	fa a5       	ldd	r31, Y+42	; 0x2a
    1f62:	81 e0       	ldi	r24, 0x01	; 1
    1f64:	83 83       	std	Z+3, r24	; 0x03
    1f66:	41 14       	cp	r4, r1
    1f68:	51 04       	cpc	r5, r1
    1f6a:	61 04       	cpc	r6, r1
    1f6c:	71 04       	cpc	r7, r1
    1f6e:	a1 f1       	breq	.+104    	; 0x1fd8 <f_open+0x1a0>
    1f70:	83 a4       	ldd	r8, Z+43	; 0x2b
    1f72:	94 a4       	ldd	r9, Z+44	; 0x2c
    1f74:	a5 a4       	ldd	r10, Z+45	; 0x2d
    1f76:	b6 a4       	ldd	r11, Z+46	; 0x2e
    1f78:	00 e0       	ldi	r16, 0x00	; 0
    1f7a:	10 e0       	ldi	r17, 0x00	; 0
    1f7c:	98 01       	movw	r18, r16
    1f7e:	b3 01       	movw	r22, r6
    1f80:	a2 01       	movw	r20, r4
    1f82:	ce 01       	movw	r24, r28
    1f84:	01 96       	adiw	r24, 0x01	; 1
    1f86:	a9 db       	rcall	.-2222   	; 0x16da <remove_chain>
    1f88:	f8 2e       	mov	r15, r24
    1f8a:	81 11       	cpse	r24, r1
    1f8c:	25 c0       	rjmp	.+74     	; 0x1fd8 <f_open+0x1a0>
    1f8e:	b5 01       	movw	r22, r10
    1f90:	a4 01       	movw	r20, r8
    1f92:	89 a5       	ldd	r24, Y+41	; 0x29
    1f94:	9a a5       	ldd	r25, Y+42	; 0x2a
    1f96:	0e 94 95 03 	call	0x72a	; 0x72a <move_window>
    1f9a:	f8 2e       	mov	r15, r24
    1f9c:	e9 a5       	ldd	r30, Y+41	; 0x29
    1f9e:	fa a5       	ldd	r31, Y+42	; 0x2a
    1fa0:	81 e0       	ldi	r24, 0x01	; 1
    1fa2:	48 1a       	sub	r4, r24
    1fa4:	51 08       	sbc	r5, r1
    1fa6:	61 08       	sbc	r6, r1
    1fa8:	71 08       	sbc	r7, r1
    1faa:	43 86       	std	Z+11, r4	; 0x0b
    1fac:	54 86       	std	Z+12, r5	; 0x0c
    1fae:	65 86       	std	Z+13, r6	; 0x0d
    1fb0:	76 86       	std	Z+14, r7	; 0x0e
    1fb2:	12 c0       	rjmp	.+36     	; 0x1fd8 <f_open+0x1a0>
    1fb4:	f1 10       	cpse	r15, r1
    1fb6:	10 c0       	rjmp	.+32     	; 0x1fd8 <f_open+0x1a0>
    1fb8:	8d 81       	ldd	r24, Y+5	; 0x05
    1fba:	84 fd       	sbrc	r24, 4
    1fbc:	05 c0       	rjmp	.+10     	; 0x1fc8 <f_open+0x190>
    1fbe:	11 ff       	sbrs	r17, 1
    1fc0:	0b c0       	rjmp	.+22     	; 0x1fd8 <f_open+0x1a0>
    1fc2:	80 fd       	sbrc	r24, 0
    1fc4:	05 c0       	rjmp	.+10     	; 0x1fd0 <f_open+0x198>
    1fc6:	08 c0       	rjmp	.+16     	; 0x1fd8 <f_open+0x1a0>
    1fc8:	68 94       	set
    1fca:	ff 24       	eor	r15, r15
    1fcc:	f2 f8       	bld	r15, 2
    1fce:	04 c0       	rjmp	.+8      	; 0x1fd8 <f_open+0x1a0>
    1fd0:	0f 2e       	mov	r0, r31
    1fd2:	f7 e0       	ldi	r31, 0x07	; 7
    1fd4:	ff 2e       	mov	r15, r31
    1fd6:	f0 2d       	mov	r31, r0
    1fd8:	f1 10       	cpse	r15, r1
    1fda:	14 c0       	rjmp	.+40     	; 0x2004 <__DATA_REGION_LENGTH__+0x4>
    1fdc:	e3 fe       	sbrs	r14, 3
    1fde:	03 c0       	rjmp	.+6      	; 0x1fe6 <f_open+0x1ae>
    1fe0:	ee 2d       	mov	r30, r14
    1fe2:	e0 64       	ori	r30, 0x40	; 64
    1fe4:	ee 2e       	mov	r14, r30
    1fe6:	e9 a5       	ldd	r30, Y+41	; 0x29
    1fe8:	fa a5       	ldd	r31, Y+42	; 0x2a
    1fea:	83 a5       	ldd	r24, Z+43	; 0x2b
    1fec:	94 a5       	ldd	r25, Z+44	; 0x2c
    1fee:	a5 a5       	ldd	r26, Z+45	; 0x2d
    1ff0:	b6 a5       	ldd	r27, Z+46	; 0x2e
    1ff2:	f6 01       	movw	r30, r12
    1ff4:	84 8f       	std	Z+28, r24	; 0x1c
    1ff6:	95 8f       	std	Z+29, r25	; 0x1d
    1ff8:	a6 8f       	std	Z+30, r26	; 0x1e
    1ffa:	b7 8f       	std	Z+31, r27	; 0x1f
    1ffc:	8b 8d       	ldd	r24, Y+27	; 0x1b
    1ffe:	9c 8d       	ldd	r25, Y+28	; 0x1c
    2000:	91 a3       	std	Z+33, r25	; 0x21
    2002:	80 a3       	std	Z+32, r24	; 0x20
    2004:	f1 10       	cpse	r15, r1
    2006:	b8 c0       	rjmp	.+368    	; 0x2178 <__DATA_REGION_LENGTH__+0x178>
    2008:	8b 8c       	ldd	r8, Y+27	; 0x1b
    200a:	9c 8c       	ldd	r9, Y+28	; 0x1c
    200c:	a9 a4       	ldd	r10, Y+41	; 0x29
    200e:	ba a4       	ldd	r11, Y+42	; 0x2a
    2010:	b4 01       	movw	r22, r8
    2012:	c5 01       	movw	r24, r10
    2014:	0e 94 5e 01 	call	0x2bc	; 0x2bc <ld_clust>
    2018:	f6 01       	movw	r30, r12
    201a:	66 83       	std	Z+6, r22	; 0x06
    201c:	77 83       	std	Z+7, r23	; 0x07
    201e:	80 87       	std	Z+8, r24	; 0x08
    2020:	91 87       	std	Z+9, r25	; 0x09
    2022:	c4 01       	movw	r24, r8
    2024:	4c 96       	adiw	r24, 0x1c	; 28
    2026:	0e 94 9e 00 	call	0x13c	; 0x13c <ld_dword>
    202a:	f6 01       	movw	r30, r12
    202c:	62 87       	std	Z+10, r22	; 0x0a
    202e:	73 87       	std	Z+11, r23	; 0x0b
    2030:	84 87       	std	Z+12, r24	; 0x0c
    2032:	95 87       	std	Z+13, r25	; 0x0d
    2034:	b1 82       	std	Z+1, r11	; 0x01
    2036:	a0 82       	st	Z, r10
    2038:	f5 01       	movw	r30, r10
    203a:	85 81       	ldd	r24, Z+5	; 0x05
    203c:	96 81       	ldd	r25, Z+6	; 0x06
    203e:	f6 01       	movw	r30, r12
    2040:	93 83       	std	Z+3, r25	; 0x03
    2042:	82 83       	std	Z+2, r24	; 0x02
    2044:	e6 86       	std	Z+14, r14	; 0x0e
    2046:	17 86       	std	Z+15, r1	; 0x0f
    2048:	10 8e       	std	Z+24, r1	; 0x18
    204a:	11 8e       	std	Z+25, r1	; 0x19
    204c:	12 8e       	std	Z+26, r1	; 0x1a
    204e:	13 8e       	std	Z+27, r1	; 0x1b
    2050:	10 8a       	std	Z+16, r1	; 0x10
    2052:	11 8a       	std	Z+17, r1	; 0x11
    2054:	12 8a       	std	Z+18, r1	; 0x12
    2056:	13 8a       	std	Z+19, r1	; 0x13
    2058:	16 01       	movw	r2, r12
    205a:	f2 e2       	ldi	r31, 0x22	; 34
    205c:	2f 0e       	add	r2, r31
    205e:	31 1c       	adc	r3, r1
    2060:	40 e0       	ldi	r20, 0x00	; 0
    2062:	52 e0       	ldi	r21, 0x02	; 2
    2064:	60 e0       	ldi	r22, 0x00	; 0
    2066:	70 e0       	ldi	r23, 0x00	; 0
    2068:	c1 01       	movw	r24, r2
    206a:	0e 94 d2 00 	call	0x1a4	; 0x1a4 <mem_set>
    206e:	e5 fe       	sbrs	r14, 5
    2070:	83 c0       	rjmp	.+262    	; 0x2178 <__DATA_REGION_LENGTH__+0x178>
    2072:	f6 01       	movw	r30, r12
    2074:	42 84       	ldd	r4, Z+10	; 0x0a
    2076:	53 84       	ldd	r5, Z+11	; 0x0b
    2078:	64 84       	ldd	r6, Z+12	; 0x0c
    207a:	75 84       	ldd	r7, Z+13	; 0x0d
    207c:	41 14       	cp	r4, r1
    207e:	51 04       	cpc	r5, r1
    2080:	61 04       	cpc	r6, r1
    2082:	71 04       	cpc	r7, r1
    2084:	09 f4       	brne	.+2      	; 0x2088 <__DATA_REGION_LENGTH__+0x88>
    2086:	78 c0       	rjmp	.+240    	; 0x2178 <__DATA_REGION_LENGTH__+0x178>
    2088:	40 8a       	std	Z+16, r4	; 0x10
    208a:	51 8a       	std	Z+17, r5	; 0x11
    208c:	62 8a       	std	Z+18, r6	; 0x12
    208e:	73 8a       	std	Z+19, r7	; 0x13
    2090:	e9 a5       	ldd	r30, Y+41	; 0x29
    2092:	fa a5       	ldd	r31, Y+42	; 0x2a
    2094:	81 85       	ldd	r24, Z+9	; 0x09
    2096:	92 85       	ldd	r25, Z+10	; 0x0a
    2098:	a0 e0       	ldi	r26, 0x00	; 0
    209a:	b0 e0       	ldi	r27, 0x00	; 0
    209c:	4c 01       	movw	r8, r24
    209e:	5d 01       	movw	r10, r26
    20a0:	07 2e       	mov	r0, r23
    20a2:	79 e0       	ldi	r23, 0x09	; 9
    20a4:	88 0c       	add	r8, r8
    20a6:	99 1c       	adc	r9, r9
    20a8:	aa 1c       	adc	r10, r10
    20aa:	bb 1c       	adc	r11, r11
    20ac:	7a 95       	dec	r23
    20ae:	d1 f7       	brne	.-12     	; 0x20a4 <__DATA_REGION_LENGTH__+0xa4>
    20b0:	70 2d       	mov	r23, r0
    20b2:	f6 01       	movw	r30, r12
    20b4:	46 81       	ldd	r20, Z+6	; 0x06
    20b6:	57 81       	ldd	r21, Z+7	; 0x07
    20b8:	60 85       	ldd	r22, Z+8	; 0x08
    20ba:	71 85       	ldd	r23, Z+9	; 0x09
    20bc:	19 c0       	rjmp	.+50     	; 0x20f0 <__DATA_REGION_LENGTH__+0xf0>
    20be:	c6 01       	movw	r24, r12
    20c0:	0e 94 5e 08 	call	0x10bc	; 0x10bc <get_fat>
    20c4:	ab 01       	movw	r20, r22
    20c6:	bc 01       	movw	r22, r24
    20c8:	42 30       	cpi	r20, 0x02	; 2
    20ca:	51 05       	cpc	r21, r1
    20cc:	61 05       	cpc	r22, r1
    20ce:	71 05       	cpc	r23, r1
    20d0:	18 f4       	brcc	.+6      	; 0x20d8 <__DATA_REGION_LENGTH__+0xd8>
    20d2:	68 94       	set
    20d4:	ff 24       	eor	r15, r15
    20d6:	f1 f8       	bld	r15, 1
    20d8:	4f 3f       	cpi	r20, 0xFF	; 255
    20da:	ff ef       	ldi	r31, 0xFF	; 255
    20dc:	5f 07       	cpc	r21, r31
    20de:	6f 07       	cpc	r22, r31
    20e0:	7f 07       	cpc	r23, r31
    20e2:	11 f4       	brne	.+4      	; 0x20e8 <__DATA_REGION_LENGTH__+0xe8>
    20e4:	ff 24       	eor	r15, r15
    20e6:	f3 94       	inc	r15
    20e8:	48 18       	sub	r4, r8
    20ea:	59 08       	sbc	r5, r9
    20ec:	6a 08       	sbc	r6, r10
    20ee:	7b 08       	sbc	r7, r11
    20f0:	f1 10       	cpse	r15, r1
    20f2:	05 c0       	rjmp	.+10     	; 0x20fe <__DATA_REGION_LENGTH__+0xfe>
    20f4:	84 14       	cp	r8, r4
    20f6:	95 04       	cpc	r9, r5
    20f8:	a6 04       	cpc	r10, r6
    20fa:	b7 04       	cpc	r11, r7
    20fc:	00 f3       	brcs	.-64     	; 0x20be <__DATA_REGION_LENGTH__+0xbe>
    20fe:	f6 01       	movw	r30, r12
    2100:	44 8b       	std	Z+20, r20	; 0x14
    2102:	55 8b       	std	Z+21, r21	; 0x15
    2104:	66 8b       	std	Z+22, r22	; 0x16
    2106:	77 8b       	std	Z+23, r23	; 0x17
    2108:	f1 10       	cpse	r15, r1
    210a:	36 c0       	rjmp	.+108    	; 0x2178 <__DATA_REGION_LENGTH__+0x178>
    210c:	d3 01       	movw	r26, r6
    210e:	c2 01       	movw	r24, r4
    2110:	91 70       	andi	r25, 0x01	; 1
    2112:	aa 27       	eor	r26, r26
    2114:	bb 27       	eor	r27, r27
    2116:	89 2b       	or	r24, r25
    2118:	8a 2b       	or	r24, r26
    211a:	8b 2b       	or	r24, r27
    211c:	69 f1       	breq	.+90     	; 0x2178 <__DATA_REGION_LENGTH__+0x178>
    211e:	89 a4       	ldd	r8, Y+41	; 0x29
    2120:	9a a4       	ldd	r9, Y+42	; 0x2a
    2122:	c4 01       	movw	r24, r8
    2124:	0e 94 30 01 	call	0x260	; 0x260 <clst2sect>
    2128:	61 15       	cp	r22, r1
    212a:	71 05       	cpc	r23, r1
    212c:	81 05       	cpc	r24, r1
    212e:	91 05       	cpc	r25, r1
    2130:	e9 f0       	breq	.+58     	; 0x216c <__DATA_REGION_LENGTH__+0x16c>
    2132:	03 2e       	mov	r0, r19
    2134:	39 e0       	ldi	r19, 0x09	; 9
    2136:	76 94       	lsr	r7
    2138:	67 94       	ror	r6
    213a:	57 94       	ror	r5
    213c:	47 94       	ror	r4
    213e:	3a 95       	dec	r19
    2140:	d1 f7       	brne	.-12     	; 0x2136 <__DATA_REGION_LENGTH__+0x136>
    2142:	30 2d       	mov	r19, r0
    2144:	9b 01       	movw	r18, r22
    2146:	ac 01       	movw	r20, r24
    2148:	24 0d       	add	r18, r4
    214a:	35 1d       	adc	r19, r5
    214c:	46 1d       	adc	r20, r6
    214e:	57 1d       	adc	r21, r7
    2150:	f6 01       	movw	r30, r12
    2152:	20 8f       	std	Z+24, r18	; 0x18
    2154:	31 8f       	std	Z+25, r19	; 0x19
    2156:	42 8f       	std	Z+26, r20	; 0x1a
    2158:	53 8f       	std	Z+27, r21	; 0x1b
    215a:	01 e0       	ldi	r16, 0x01	; 1
    215c:	10 e0       	ldi	r17, 0x00	; 0
    215e:	b1 01       	movw	r22, r2
    2160:	f4 01       	movw	r30, r8
    2162:	81 81       	ldd	r24, Z+1	; 0x01
    2164:	5e d4       	rcall	.+2236   	; 0x2a22 <disk_read>
    2166:	81 11       	cpse	r24, r1
    2168:	05 c0       	rjmp	.+10     	; 0x2174 <__DATA_REGION_LENGTH__+0x174>
    216a:	06 c0       	rjmp	.+12     	; 0x2178 <__DATA_REGION_LENGTH__+0x178>
    216c:	68 94       	set
    216e:	ff 24       	eor	r15, r15
    2170:	f1 f8       	bld	r15, 1
    2172:	02 c0       	rjmp	.+4      	; 0x2178 <__DATA_REGION_LENGTH__+0x178>
    2174:	ff 24       	eor	r15, r15
    2176:	f3 94       	inc	r15
    2178:	ff 20       	and	r15, r15
    217a:	39 f0       	breq	.+14     	; 0x218a <__DATA_REGION_LENGTH__+0x18a>
    217c:	f6 01       	movw	r30, r12
    217e:	11 82       	std	Z+1, r1	; 0x01
    2180:	10 82       	st	Z, r1
    2182:	8f 2d       	mov	r24, r15
    2184:	03 c0       	rjmp	.+6      	; 0x218c <__DATA_REGION_LENGTH__+0x18c>
    2186:	89 e0       	ldi	r24, 0x09	; 9
    2188:	01 c0       	rjmp	.+2      	; 0x218c <__DATA_REGION_LENGTH__+0x18c>
    218a:	8f 2d       	mov	r24, r15
    218c:	ac 96       	adiw	r28, 0x2c	; 44
    218e:	0f b6       	in	r0, 0x3f	; 63
    2190:	f8 94       	cli
    2192:	de bf       	out	0x3e, r29	; 62
    2194:	0f be       	out	0x3f, r0	; 63
    2196:	cd bf       	out	0x3d, r28	; 61
    2198:	df 91       	pop	r29
    219a:	cf 91       	pop	r28
    219c:	1f 91       	pop	r17
    219e:	0f 91       	pop	r16
    21a0:	ff 90       	pop	r15
    21a2:	ef 90       	pop	r14
    21a4:	df 90       	pop	r13
    21a6:	cf 90       	pop	r12
    21a8:	bf 90       	pop	r11
    21aa:	af 90       	pop	r10
    21ac:	9f 90       	pop	r9
    21ae:	8f 90       	pop	r8
    21b0:	7f 90       	pop	r7
    21b2:	6f 90       	pop	r6
    21b4:	5f 90       	pop	r5
    21b6:	4f 90       	pop	r4
    21b8:	3f 90       	pop	r3
    21ba:	2f 90       	pop	r2
    21bc:	08 95       	ret

000021be <f_write>:
    21be:	2f 92       	push	r2
    21c0:	3f 92       	push	r3
    21c2:	4f 92       	push	r4
    21c4:	5f 92       	push	r5
    21c6:	6f 92       	push	r6
    21c8:	7f 92       	push	r7
    21ca:	8f 92       	push	r8
    21cc:	9f 92       	push	r9
    21ce:	af 92       	push	r10
    21d0:	bf 92       	push	r11
    21d2:	cf 92       	push	r12
    21d4:	df 92       	push	r13
    21d6:	ef 92       	push	r14
    21d8:	ff 92       	push	r15
    21da:	0f 93       	push	r16
    21dc:	1f 93       	push	r17
    21de:	cf 93       	push	r28
    21e0:	df 93       	push	r29
    21e2:	cd b7       	in	r28, 0x3d	; 61
    21e4:	de b7       	in	r29, 0x3e	; 62
    21e6:	2a 97       	sbiw	r28, 0x0a	; 10
    21e8:	0f b6       	in	r0, 0x3f	; 63
    21ea:	f8 94       	cli
    21ec:	de bf       	out	0x3e, r29	; 62
    21ee:	0f be       	out	0x3f, r0	; 63
    21f0:	cd bf       	out	0x3d, r28	; 61
    21f2:	7c 01       	movw	r14, r24
    21f4:	4b 01       	movw	r8, r22
    21f6:	6a 01       	movw	r12, r20
    21f8:	59 01       	movw	r10, r18
    21fa:	d9 01       	movw	r26, r18
    21fc:	1d 92       	st	X+, r1
    21fe:	1c 92       	st	X, r1
    2200:	8f 83       	std	Y+7, r24	; 0x07
    2202:	f8 86       	std	Y+8, r15	; 0x08
    2204:	be 01       	movw	r22, r28
    2206:	6f 5f       	subi	r22, 0xFF	; 255
    2208:	7f 4f       	sbci	r23, 0xFF	; 255
    220a:	0e 94 06 03 	call	0x60c	; 0x60c <validate>
    220e:	81 11       	cpse	r24, r1
    2210:	ac c1       	rjmp	.+856    	; 0x256a <__stack+0x36b>
    2212:	f7 01       	movw	r30, r14
    2214:	87 85       	ldd	r24, Z+15	; 0x0f
    2216:	81 11       	cpse	r24, r1
    2218:	a8 c1       	rjmp	.+848    	; 0x256a <__stack+0x36b>
    221a:	86 85       	ldd	r24, Z+14	; 0x0e
    221c:	81 ff       	sbrs	r24, 1
    221e:	a4 c1       	rjmp	.+840    	; 0x2568 <__stack+0x369>
    2220:	80 89       	ldd	r24, Z+16	; 0x10
    2222:	91 89       	ldd	r25, Z+17	; 0x11
    2224:	a2 89       	ldd	r26, Z+18	; 0x12
    2226:	b3 89       	ldd	r27, Z+19	; 0x13
    2228:	ac 01       	movw	r20, r24
    222a:	bd 01       	movw	r22, r26
    222c:	4c 0d       	add	r20, r12
    222e:	5d 1d       	adc	r21, r13
    2230:	61 1d       	adc	r22, r1
    2232:	71 1d       	adc	r23, r1
    2234:	48 17       	cp	r20, r24
    2236:	59 07       	cpc	r21, r25
    2238:	6a 07       	cpc	r22, r26
    223a:	7b 07       	cpc	r23, r27
    223c:	08 f0       	brcs	.+2      	; 0x2240 <__stack+0x41>
    223e:	87 c1       	rjmp	.+782    	; 0x254e <__stack+0x34f>
    2240:	6c 01       	movw	r12, r24
    2242:	c0 94       	com	r12
    2244:	d0 94       	com	r13
    2246:	83 c1       	rjmp	.+774    	; 0x254e <__stack+0x34f>
    2248:	f7 01       	movw	r30, r14
    224a:	80 89       	ldd	r24, Z+16	; 0x10
    224c:	91 89       	ldd	r25, Z+17	; 0x11
    224e:	a2 89       	ldd	r26, Z+18	; 0x12
    2250:	b3 89       	ldd	r27, Z+19	; 0x13
    2252:	ac 01       	movw	r20, r24
    2254:	bd 01       	movw	r22, r26
    2256:	51 70       	andi	r21, 0x01	; 1
    2258:	66 27       	eor	r22, r22
    225a:	77 27       	eor	r23, r23
    225c:	45 2b       	or	r20, r21
    225e:	46 2b       	or	r20, r22
    2260:	47 2b       	or	r20, r23
    2262:	09 f0       	breq	.+2      	; 0x2266 <__stack+0x67>
    2264:	2d c1       	rjmp	.+602    	; 0x24c0 <__stack+0x2c1>
    2266:	e9 81       	ldd	r30, Y+1	; 0x01
    2268:	fa 81       	ldd	r31, Y+2	; 0x02
    226a:	61 84       	ldd	r6, Z+9	; 0x09
    226c:	72 84       	ldd	r7, Z+10	; 0x0a
    226e:	f1 e0       	ldi	r31, 0x01	; 1
    2270:	6f 1a       	sub	r6, r31
    2272:	71 08       	sbc	r7, r1
    2274:	ac 01       	movw	r20, r24
    2276:	bd 01       	movw	r22, r26
    2278:	03 2e       	mov	r0, r19
    227a:	39 e0       	ldi	r19, 0x09	; 9
    227c:	76 95       	lsr	r23
    227e:	67 95       	ror	r22
    2280:	57 95       	ror	r21
    2282:	47 95       	ror	r20
    2284:	3a 95       	dec	r19
    2286:	d1 f7       	brne	.-12     	; 0x227c <__stack+0x7d>
    2288:	30 2d       	mov	r19, r0
    228a:	64 22       	and	r6, r20
    228c:	75 22       	and	r7, r21
    228e:	61 14       	cp	r6, r1
    2290:	71 04       	cpc	r7, r1
    2292:	09 f0       	breq	.+2      	; 0x2296 <__stack+0x97>
    2294:	4f c0       	rjmp	.+158    	; 0x2334 <__stack+0x135>
    2296:	89 2b       	or	r24, r25
    2298:	8a 2b       	or	r24, r26
    229a:	8b 2b       	or	r24, r27
    229c:	99 f4       	brne	.+38     	; 0x22c4 <__stack+0xc5>
    229e:	d7 01       	movw	r26, r14
    22a0:	16 96       	adiw	r26, 0x06	; 6
    22a2:	6d 91       	ld	r22, X+
    22a4:	7d 91       	ld	r23, X+
    22a6:	8d 91       	ld	r24, X+
    22a8:	9c 91       	ld	r25, X
    22aa:	19 97       	sbiw	r26, 0x09	; 9
    22ac:	61 15       	cp	r22, r1
    22ae:	71 05       	cpc	r23, r1
    22b0:	81 05       	cpc	r24, r1
    22b2:	91 05       	cpc	r25, r1
    22b4:	79 f4       	brne	.+30     	; 0x22d4 <__stack+0xd5>
    22b6:	40 e0       	ldi	r20, 0x00	; 0
    22b8:	50 e0       	ldi	r21, 0x00	; 0
    22ba:	ba 01       	movw	r22, r20
    22bc:	8f 81       	ldd	r24, Y+7	; 0x07
    22be:	98 85       	ldd	r25, Y+8	; 0x08
    22c0:	c0 d8       	rcall	.-3712   	; 0x1442 <create_chain>
    22c2:	08 c0       	rjmp	.+16     	; 0x22d4 <__stack+0xd5>
    22c4:	f7 01       	movw	r30, r14
    22c6:	44 89       	ldd	r20, Z+20	; 0x14
    22c8:	55 89       	ldd	r21, Z+21	; 0x15
    22ca:	66 89       	ldd	r22, Z+22	; 0x16
    22cc:	77 89       	ldd	r23, Z+23	; 0x17
    22ce:	8f 81       	ldd	r24, Y+7	; 0x07
    22d0:	98 85       	ldd	r25, Y+8	; 0x08
    22d2:	b7 d8       	rcall	.-3730   	; 0x1442 <create_chain>
    22d4:	61 15       	cp	r22, r1
    22d6:	71 05       	cpc	r23, r1
    22d8:	81 05       	cpc	r24, r1
    22da:	91 05       	cpc	r25, r1
    22dc:	09 f4       	brne	.+2      	; 0x22e0 <__stack+0xe1>
    22de:	3b c1       	rjmp	.+630    	; 0x2556 <__stack+0x357>
    22e0:	61 30       	cpi	r22, 0x01	; 1
    22e2:	71 05       	cpc	r23, r1
    22e4:	81 05       	cpc	r24, r1
    22e6:	91 05       	cpc	r25, r1
    22e8:	29 f4       	brne	.+10     	; 0x22f4 <__stack+0xf5>
    22ea:	82 e0       	ldi	r24, 0x02	; 2
    22ec:	d7 01       	movw	r26, r14
    22ee:	1f 96       	adiw	r26, 0x0f	; 15
    22f0:	8c 93       	st	X, r24
    22f2:	3b c1       	rjmp	.+630    	; 0x256a <__stack+0x36b>
    22f4:	6f 3f       	cpi	r22, 0xFF	; 255
    22f6:	bf ef       	ldi	r27, 0xFF	; 255
    22f8:	7b 07       	cpc	r23, r27
    22fa:	8b 07       	cpc	r24, r27
    22fc:	9b 07       	cpc	r25, r27
    22fe:	21 f4       	brne	.+8      	; 0x2308 <__stack+0x109>
    2300:	81 e0       	ldi	r24, 0x01	; 1
    2302:	f7 01       	movw	r30, r14
    2304:	87 87       	std	Z+15, r24	; 0x0f
    2306:	31 c1       	rjmp	.+610    	; 0x256a <__stack+0x36b>
    2308:	d7 01       	movw	r26, r14
    230a:	54 96       	adiw	r26, 0x14	; 20
    230c:	6d 93       	st	X+, r22
    230e:	7d 93       	st	X+, r23
    2310:	8d 93       	st	X+, r24
    2312:	9c 93       	st	X, r25
    2314:	57 97       	sbiw	r26, 0x17	; 23
    2316:	16 96       	adiw	r26, 0x06	; 6
    2318:	0d 91       	ld	r16, X+
    231a:	1d 91       	ld	r17, X+
    231c:	2d 91       	ld	r18, X+
    231e:	3c 91       	ld	r19, X
    2320:	19 97       	sbiw	r26, 0x09	; 9
    2322:	01 2b       	or	r16, r17
    2324:	02 2b       	or	r16, r18
    2326:	03 2b       	or	r16, r19
    2328:	29 f4       	brne	.+10     	; 0x2334 <__stack+0x135>
    232a:	f7 01       	movw	r30, r14
    232c:	66 83       	std	Z+6, r22	; 0x06
    232e:	77 83       	std	Z+7, r23	; 0x07
    2330:	80 87       	std	Z+8, r24	; 0x08
    2332:	91 87       	std	Z+9, r25	; 0x09
    2334:	d7 01       	movw	r26, r14
    2336:	1e 96       	adiw	r26, 0x0e	; 14
    2338:	8c 91       	ld	r24, X
    233a:	1e 97       	sbiw	r26, 0x0e	; 14
    233c:	88 23       	and	r24, r24
    233e:	e4 f4       	brge	.+56     	; 0x2378 <__stack+0x179>
    2340:	e9 81       	ldd	r30, Y+1	; 0x01
    2342:	fa 81       	ldd	r31, Y+2	; 0x02
    2344:	58 96       	adiw	r26, 0x18	; 24
    2346:	2d 91       	ld	r18, X+
    2348:	3d 91       	ld	r19, X+
    234a:	4d 91       	ld	r20, X+
    234c:	5c 91       	ld	r21, X
    234e:	5b 97       	sbiw	r26, 0x1b	; 27
    2350:	01 e0       	ldi	r16, 0x01	; 1
    2352:	10 e0       	ldi	r17, 0x00	; 0
    2354:	b7 01       	movw	r22, r14
    2356:	6e 5d       	subi	r22, 0xDE	; 222
    2358:	7f 4f       	sbci	r23, 0xFF	; 255
    235a:	81 81       	ldd	r24, Z+1	; 0x01
    235c:	a2 d3       	rcall	.+1860   	; 0x2aa2 <disk_write>
    235e:	88 23       	and	r24, r24
    2360:	21 f0       	breq	.+8      	; 0x236a <__stack+0x16b>
    2362:	81 e0       	ldi	r24, 0x01	; 1
    2364:	f7 01       	movw	r30, r14
    2366:	87 87       	std	Z+15, r24	; 0x0f
    2368:	00 c1       	rjmp	.+512    	; 0x256a <__stack+0x36b>
    236a:	d7 01       	movw	r26, r14
    236c:	1e 96       	adiw	r26, 0x0e	; 14
    236e:	8c 91       	ld	r24, X
    2370:	1e 97       	sbiw	r26, 0x0e	; 14
    2372:	8f 77       	andi	r24, 0x7F	; 127
    2374:	1e 96       	adiw	r26, 0x0e	; 14
    2376:	8c 93       	st	X, r24
    2378:	f7 01       	movw	r30, r14
    237a:	44 89       	ldd	r20, Z+20	; 0x14
    237c:	55 89       	ldd	r21, Z+21	; 0x15
    237e:	66 89       	ldd	r22, Z+22	; 0x16
    2380:	77 89       	ldd	r23, Z+23	; 0x17
    2382:	29 81       	ldd	r18, Y+1	; 0x01
    2384:	3a 81       	ldd	r19, Y+2	; 0x02
    2386:	3e 83       	std	Y+6, r19	; 0x06
    2388:	2d 83       	std	Y+5, r18	; 0x05
    238a:	c9 01       	movw	r24, r18
    238c:	0e 94 30 01 	call	0x260	; 0x260 <clst2sect>
    2390:	61 15       	cp	r22, r1
    2392:	71 05       	cpc	r23, r1
    2394:	81 05       	cpc	r24, r1
    2396:	91 05       	cpc	r25, r1
    2398:	29 f4       	brne	.+10     	; 0x23a4 <__stack+0x1a5>
    239a:	82 e0       	ldi	r24, 0x02	; 2
    239c:	d7 01       	movw	r26, r14
    239e:	1f 96       	adiw	r26, 0x0f	; 15
    23a0:	8c 93       	st	X, r24
    23a2:	e3 c0       	rjmp	.+454    	; 0x256a <__stack+0x36b>
    23a4:	1b 01       	movw	r2, r22
    23a6:	2c 01       	movw	r4, r24
    23a8:	26 0c       	add	r2, r6
    23aa:	37 1c       	adc	r3, r7
    23ac:	41 1c       	adc	r4, r1
    23ae:	51 1c       	adc	r5, r1
    23b0:	f6 01       	movw	r30, r12
    23b2:	ef 2f       	mov	r30, r31
    23b4:	ff 27       	eor	r31, r31
    23b6:	e6 95       	lsr	r30
    23b8:	fc 83       	std	Y+4, r31	; 0x04
    23ba:	eb 83       	std	Y+3, r30	; 0x03
    23bc:	30 97       	sbiw	r30, 0x00	; 0
    23be:	09 f4       	brne	.+2      	; 0x23c2 <__stack+0x1c3>
    23c0:	4f c0       	rjmp	.+158    	; 0x2460 <__stack+0x261>
    23c2:	ad 81       	ldd	r26, Y+5	; 0x05
    23c4:	be 81       	ldd	r27, Y+6	; 0x06
    23c6:	19 96       	adiw	r26, 0x09	; 9
    23c8:	2d 91       	ld	r18, X+
    23ca:	3c 91       	ld	r19, X
    23cc:	1a 97       	sbiw	r26, 0x0a	; 10
    23ce:	cf 01       	movw	r24, r30
    23d0:	86 0d       	add	r24, r6
    23d2:	97 1d       	adc	r25, r7
    23d4:	28 17       	cp	r18, r24
    23d6:	39 07       	cpc	r19, r25
    23d8:	28 f4       	brcc	.+10     	; 0x23e4 <__stack+0x1e5>
    23da:	f9 01       	movw	r30, r18
    23dc:	e6 19       	sub	r30, r6
    23de:	f7 09       	sbc	r31, r7
    23e0:	fc 83       	std	Y+4, r31	; 0x04
    23e2:	eb 83       	std	Y+3, r30	; 0x03
    23e4:	0b 81       	ldd	r16, Y+3	; 0x03
    23e6:	1c 81       	ldd	r17, Y+4	; 0x04
    23e8:	a2 01       	movw	r20, r4
    23ea:	91 01       	movw	r18, r2
    23ec:	b4 01       	movw	r22, r8
    23ee:	ad 81       	ldd	r26, Y+5	; 0x05
    23f0:	be 81       	ldd	r27, Y+6	; 0x06
    23f2:	11 96       	adiw	r26, 0x01	; 1
    23f4:	8c 91       	ld	r24, X
    23f6:	55 d3       	rcall	.+1706   	; 0x2aa2 <disk_write>
    23f8:	88 23       	and	r24, r24
    23fa:	21 f0       	breq	.+8      	; 0x2404 <__stack+0x205>
    23fc:	81 e0       	ldi	r24, 0x01	; 1
    23fe:	f7 01       	movw	r30, r14
    2400:	87 87       	std	Z+15, r24	; 0x0f
    2402:	b3 c0       	rjmp	.+358    	; 0x256a <__stack+0x36b>
    2404:	f7 01       	movw	r30, r14
    2406:	80 8d       	ldd	r24, Z+24	; 0x18
    2408:	91 8d       	ldd	r25, Z+25	; 0x19
    240a:	a2 8d       	ldd	r26, Z+26	; 0x1a
    240c:	b3 8d       	ldd	r27, Z+27	; 0x1b
    240e:	82 19       	sub	r24, r2
    2410:	93 09       	sbc	r25, r3
    2412:	a4 09       	sbc	r26, r4
    2414:	b5 09       	sbc	r27, r5
    2416:	2b 81       	ldd	r18, Y+3	; 0x03
    2418:	3c 81       	ldd	r19, Y+4	; 0x04
    241a:	a9 01       	movw	r20, r18
    241c:	60 e0       	ldi	r22, 0x00	; 0
    241e:	70 e0       	ldi	r23, 0x00	; 0
    2420:	84 17       	cp	r24, r20
    2422:	95 07       	cpc	r25, r21
    2424:	a6 07       	cpc	r26, r22
    2426:	b7 07       	cpc	r27, r23
    2428:	a8 f4       	brcc	.+42     	; 0x2454 <__stack+0x255>
    242a:	38 2f       	mov	r19, r24
    242c:	33 0f       	add	r19, r19
    242e:	3a 87       	std	Y+10, r19	; 0x0a
    2430:	19 86       	std	Y+9, r1	; 0x09
    2432:	69 85       	ldd	r22, Y+9	; 0x09
    2434:	7a 85       	ldd	r23, Y+10	; 0x0a
    2436:	68 0d       	add	r22, r8
    2438:	79 1d       	adc	r23, r9
    243a:	40 e0       	ldi	r20, 0x00	; 0
    243c:	52 e0       	ldi	r21, 0x02	; 2
    243e:	c7 01       	movw	r24, r14
    2440:	82 96       	adiw	r24, 0x22	; 34
    2442:	0e 94 c3 00 	call	0x186	; 0x186 <mem_cpy>
    2446:	d7 01       	movw	r26, r14
    2448:	1e 96       	adiw	r26, 0x0e	; 14
    244a:	8c 91       	ld	r24, X
    244c:	1e 97       	sbiw	r26, 0x0e	; 14
    244e:	8f 77       	andi	r24, 0x7F	; 127
    2450:	1e 96       	adiw	r26, 0x0e	; 14
    2452:	8c 93       	st	X, r24
    2454:	6b 80       	ldd	r6, Y+3	; 0x03
    2456:	7c 80       	ldd	r7, Y+4	; 0x04
    2458:	76 2c       	mov	r7, r6
    245a:	66 24       	eor	r6, r6
    245c:	77 0c       	add	r7, r7
    245e:	4f c0       	rjmp	.+158    	; 0x24fe <__stack+0x2ff>
    2460:	f7 01       	movw	r30, r14
    2462:	80 8d       	ldd	r24, Z+24	; 0x18
    2464:	91 8d       	ldd	r25, Z+25	; 0x19
    2466:	a2 8d       	ldd	r26, Z+26	; 0x1a
    2468:	b3 8d       	ldd	r27, Z+27	; 0x1b
    246a:	28 16       	cp	r2, r24
    246c:	39 06       	cpc	r3, r25
    246e:	4a 06       	cpc	r4, r26
    2470:	5b 06       	cpc	r5, r27
    2472:	f9 f0       	breq	.+62     	; 0x24b2 <__stack+0x2b3>
    2474:	40 89       	ldd	r20, Z+16	; 0x10
    2476:	51 89       	ldd	r21, Z+17	; 0x11
    2478:	62 89       	ldd	r22, Z+18	; 0x12
    247a:	73 89       	ldd	r23, Z+19	; 0x13
    247c:	82 85       	ldd	r24, Z+10	; 0x0a
    247e:	93 85       	ldd	r25, Z+11	; 0x0b
    2480:	a4 85       	ldd	r26, Z+12	; 0x0c
    2482:	b5 85       	ldd	r27, Z+13	; 0x0d
    2484:	48 17       	cp	r20, r24
    2486:	59 07       	cpc	r21, r25
    2488:	6a 07       	cpc	r22, r26
    248a:	7b 07       	cpc	r23, r27
    248c:	90 f4       	brcc	.+36     	; 0x24b2 <__stack+0x2b3>
    248e:	01 e0       	ldi	r16, 0x01	; 1
    2490:	10 e0       	ldi	r17, 0x00	; 0
    2492:	a2 01       	movw	r20, r4
    2494:	91 01       	movw	r18, r2
    2496:	b7 01       	movw	r22, r14
    2498:	6e 5d       	subi	r22, 0xDE	; 222
    249a:	7f 4f       	sbci	r23, 0xFF	; 255
    249c:	ad 81       	ldd	r26, Y+5	; 0x05
    249e:	be 81       	ldd	r27, Y+6	; 0x06
    24a0:	11 96       	adiw	r26, 0x01	; 1
    24a2:	8c 91       	ld	r24, X
    24a4:	be d2       	rcall	.+1404   	; 0x2a22 <disk_read>
    24a6:	88 23       	and	r24, r24
    24a8:	21 f0       	breq	.+8      	; 0x24b2 <__stack+0x2b3>
    24aa:	81 e0       	ldi	r24, 0x01	; 1
    24ac:	f7 01       	movw	r30, r14
    24ae:	87 87       	std	Z+15, r24	; 0x0f
    24b0:	5c c0       	rjmp	.+184    	; 0x256a <__stack+0x36b>
    24b2:	d7 01       	movw	r26, r14
    24b4:	58 96       	adiw	r26, 0x18	; 24
    24b6:	2d 92       	st	X+, r2
    24b8:	3d 92       	st	X+, r3
    24ba:	4d 92       	st	X+, r4
    24bc:	5c 92       	st	X, r5
    24be:	5b 97       	sbiw	r26, 0x1b	; 27
    24c0:	f7 01       	movw	r30, r14
    24c2:	80 89       	ldd	r24, Z+16	; 0x10
    24c4:	91 89       	ldd	r25, Z+17	; 0x11
    24c6:	a2 89       	ldd	r26, Z+18	; 0x12
    24c8:	b3 89       	ldd	r27, Z+19	; 0x13
    24ca:	91 70       	andi	r25, 0x01	; 1
    24cc:	20 e0       	ldi	r18, 0x00	; 0
    24ce:	32 e0       	ldi	r19, 0x02	; 2
    24d0:	39 01       	movw	r6, r18
    24d2:	68 1a       	sub	r6, r24
    24d4:	79 0a       	sbc	r7, r25
    24d6:	c6 14       	cp	r12, r6
    24d8:	d7 04       	cpc	r13, r7
    24da:	08 f4       	brcc	.+2      	; 0x24de <__stack+0x2df>
    24dc:	36 01       	movw	r6, r12
    24de:	a3 01       	movw	r20, r6
    24e0:	b4 01       	movw	r22, r8
    24e2:	97 01       	movw	r18, r14
    24e4:	2e 5d       	subi	r18, 0xDE	; 222
    24e6:	3f 4f       	sbci	r19, 0xFF	; 255
    24e8:	82 0f       	add	r24, r18
    24ea:	93 1f       	adc	r25, r19
    24ec:	0e 94 c3 00 	call	0x186	; 0x186 <mem_cpy>
    24f0:	d7 01       	movw	r26, r14
    24f2:	1e 96       	adiw	r26, 0x0e	; 14
    24f4:	8c 91       	ld	r24, X
    24f6:	1e 97       	sbiw	r26, 0x0e	; 14
    24f8:	80 68       	ori	r24, 0x80	; 128
    24fa:	1e 96       	adiw	r26, 0x0e	; 14
    24fc:	8c 93       	st	X, r24
    24fe:	c6 18       	sub	r12, r6
    2500:	d7 08       	sbc	r13, r7
    2502:	f5 01       	movw	r30, r10
    2504:	80 81       	ld	r24, Z
    2506:	91 81       	ldd	r25, Z+1	; 0x01
    2508:	86 0d       	add	r24, r6
    250a:	97 1d       	adc	r25, r7
    250c:	91 83       	std	Z+1, r25	; 0x01
    250e:	80 83       	st	Z, r24
    2510:	86 0c       	add	r8, r6
    2512:	97 1c       	adc	r9, r7
    2514:	f7 01       	movw	r30, r14
    2516:	80 89       	ldd	r24, Z+16	; 0x10
    2518:	91 89       	ldd	r25, Z+17	; 0x11
    251a:	a2 89       	ldd	r26, Z+18	; 0x12
    251c:	b3 89       	ldd	r27, Z+19	; 0x13
    251e:	86 0d       	add	r24, r6
    2520:	97 1d       	adc	r25, r7
    2522:	a1 1d       	adc	r26, r1
    2524:	b1 1d       	adc	r27, r1
    2526:	80 8b       	std	Z+16, r24	; 0x10
    2528:	91 8b       	std	Z+17, r25	; 0x11
    252a:	a2 8b       	std	Z+18, r26	; 0x12
    252c:	b3 8b       	std	Z+19, r27	; 0x13
    252e:	42 85       	ldd	r20, Z+10	; 0x0a
    2530:	53 85       	ldd	r21, Z+11	; 0x0b
    2532:	64 85       	ldd	r22, Z+12	; 0x0c
    2534:	75 85       	ldd	r23, Z+13	; 0x0d
    2536:	84 17       	cp	r24, r20
    2538:	95 07       	cpc	r25, r21
    253a:	a6 07       	cpc	r26, r22
    253c:	b7 07       	cpc	r27, r23
    253e:	10 f4       	brcc	.+4      	; 0x2544 <__stack+0x345>
    2540:	db 01       	movw	r26, r22
    2542:	ca 01       	movw	r24, r20
    2544:	f7 01       	movw	r30, r14
    2546:	82 87       	std	Z+10, r24	; 0x0a
    2548:	93 87       	std	Z+11, r25	; 0x0b
    254a:	a4 87       	std	Z+12, r26	; 0x0c
    254c:	b5 87       	std	Z+13, r27	; 0x0d
    254e:	c1 14       	cp	r12, r1
    2550:	d1 04       	cpc	r13, r1
    2552:	09 f0       	breq	.+2      	; 0x2556 <__stack+0x357>
    2554:	79 ce       	rjmp	.-782    	; 0x2248 <__stack+0x49>
    2556:	d7 01       	movw	r26, r14
    2558:	1e 96       	adiw	r26, 0x0e	; 14
    255a:	8c 91       	ld	r24, X
    255c:	1e 97       	sbiw	r26, 0x0e	; 14
    255e:	80 64       	ori	r24, 0x40	; 64
    2560:	1e 96       	adiw	r26, 0x0e	; 14
    2562:	8c 93       	st	X, r24
    2564:	80 e0       	ldi	r24, 0x00	; 0
    2566:	01 c0       	rjmp	.+2      	; 0x256a <__stack+0x36b>
    2568:	87 e0       	ldi	r24, 0x07	; 7
    256a:	2a 96       	adiw	r28, 0x0a	; 10
    256c:	0f b6       	in	r0, 0x3f	; 63
    256e:	f8 94       	cli
    2570:	de bf       	out	0x3e, r29	; 62
    2572:	0f be       	out	0x3f, r0	; 63
    2574:	cd bf       	out	0x3d, r28	; 61
    2576:	df 91       	pop	r29
    2578:	cf 91       	pop	r28
    257a:	1f 91       	pop	r17
    257c:	0f 91       	pop	r16
    257e:	ff 90       	pop	r15
    2580:	ef 90       	pop	r14
    2582:	df 90       	pop	r13
    2584:	cf 90       	pop	r12
    2586:	bf 90       	pop	r11
    2588:	af 90       	pop	r10
    258a:	9f 90       	pop	r9
    258c:	8f 90       	pop	r8
    258e:	7f 90       	pop	r7
    2590:	6f 90       	pop	r6
    2592:	5f 90       	pop	r5
    2594:	4f 90       	pop	r4
    2596:	3f 90       	pop	r3
    2598:	2f 90       	pop	r2
    259a:	08 95       	ret

0000259c <f_sync>:
    259c:	8f 92       	push	r8
    259e:	9f 92       	push	r9
    25a0:	af 92       	push	r10
    25a2:	bf 92       	push	r11
    25a4:	ef 92       	push	r14
    25a6:	ff 92       	push	r15
    25a8:	0f 93       	push	r16
    25aa:	1f 93       	push	r17
    25ac:	cf 93       	push	r28
    25ae:	df 93       	push	r29
    25b0:	1f 92       	push	r1
    25b2:	1f 92       	push	r1
    25b4:	cd b7       	in	r28, 0x3d	; 61
    25b6:	de b7       	in	r29, 0x3e	; 62
    25b8:	7c 01       	movw	r14, r24
    25ba:	be 01       	movw	r22, r28
    25bc:	6f 5f       	subi	r22, 0xFF	; 255
    25be:	7f 4f       	sbci	r23, 0xFF	; 255
    25c0:	0e 94 06 03 	call	0x60c	; 0x60c <validate>
    25c4:	81 11       	cpse	r24, r1
    25c6:	62 c0       	rjmp	.+196    	; 0x268c <f_sync+0xf0>
    25c8:	d7 01       	movw	r26, r14
    25ca:	1e 96       	adiw	r26, 0x0e	; 14
    25cc:	9c 91       	ld	r25, X
    25ce:	1e 97       	sbiw	r26, 0x0e	; 14
    25d0:	96 ff       	sbrs	r25, 6
    25d2:	5c c0       	rjmp	.+184    	; 0x268c <f_sync+0xf0>
    25d4:	99 23       	and	r25, r25
    25d6:	ac f4       	brge	.+42     	; 0x2602 <f_sync+0x66>
    25d8:	e9 81       	ldd	r30, Y+1	; 0x01
    25da:	fa 81       	ldd	r31, Y+2	; 0x02
    25dc:	58 96       	adiw	r26, 0x18	; 24
    25de:	2d 91       	ld	r18, X+
    25e0:	3d 91       	ld	r19, X+
    25e2:	4d 91       	ld	r20, X+
    25e4:	5c 91       	ld	r21, X
    25e6:	5b 97       	sbiw	r26, 0x1b	; 27
    25e8:	01 e0       	ldi	r16, 0x01	; 1
    25ea:	10 e0       	ldi	r17, 0x00	; 0
    25ec:	b7 01       	movw	r22, r14
    25ee:	6e 5d       	subi	r22, 0xDE	; 222
    25f0:	7f 4f       	sbci	r23, 0xFF	; 255
    25f2:	81 81       	ldd	r24, Z+1	; 0x01
    25f4:	56 d2       	rcall	.+1196   	; 0x2aa2 <disk_write>
    25f6:	81 11       	cpse	r24, r1
    25f8:	48 c0       	rjmp	.+144    	; 0x268a <f_sync+0xee>
    25fa:	f7 01       	movw	r30, r14
    25fc:	86 85       	ldd	r24, Z+14	; 0x0e
    25fe:	8f 77       	andi	r24, 0x7F	; 127
    2600:	86 87       	std	Z+14, r24	; 0x0e
    2602:	be d2       	rcall	.+1404   	; 0x2b80 <get_fattime>
    2604:	4b 01       	movw	r8, r22
    2606:	5c 01       	movw	r10, r24
    2608:	d7 01       	movw	r26, r14
    260a:	5c 96       	adiw	r26, 0x1c	; 28
    260c:	4d 91       	ld	r20, X+
    260e:	5d 91       	ld	r21, X+
    2610:	6d 91       	ld	r22, X+
    2612:	7c 91       	ld	r23, X
    2614:	5f 97       	sbiw	r26, 0x1f	; 31
    2616:	89 81       	ldd	r24, Y+1	; 0x01
    2618:	9a 81       	ldd	r25, Y+2	; 0x02
    261a:	0e 94 95 03 	call	0x72a	; 0x72a <move_window>
    261e:	81 11       	cpse	r24, r1
    2620:	35 c0       	rjmp	.+106    	; 0x268c <f_sync+0xf0>
    2622:	f7 01       	movw	r30, r14
    2624:	00 a1       	ldd	r16, Z+32	; 0x20
    2626:	11 a1       	ldd	r17, Z+33	; 0x21
    2628:	d8 01       	movw	r26, r16
    262a:	1b 96       	adiw	r26, 0x0b	; 11
    262c:	8c 91       	ld	r24, X
    262e:	1b 97       	sbiw	r26, 0x0b	; 11
    2630:	80 62       	ori	r24, 0x20	; 32
    2632:	1b 96       	adiw	r26, 0x0b	; 11
    2634:	8c 93       	st	X, r24
    2636:	26 81       	ldd	r18, Z+6	; 0x06
    2638:	37 81       	ldd	r19, Z+7	; 0x07
    263a:	40 85       	ldd	r20, Z+8	; 0x08
    263c:	51 85       	ldd	r21, Z+9	; 0x09
    263e:	b8 01       	movw	r22, r16
    2640:	80 81       	ld	r24, Z
    2642:	91 81       	ldd	r25, Z+1	; 0x01
    2644:	0e 94 89 01 	call	0x312	; 0x312 <st_clust>
    2648:	f7 01       	movw	r30, r14
    264a:	42 85       	ldd	r20, Z+10	; 0x0a
    264c:	53 85       	ldd	r21, Z+11	; 0x0b
    264e:	64 85       	ldd	r22, Z+12	; 0x0c
    2650:	75 85       	ldd	r23, Z+13	; 0x0d
    2652:	c8 01       	movw	r24, r16
    2654:	4c 96       	adiw	r24, 0x1c	; 28
    2656:	0e 94 bd 00 	call	0x17a	; 0x17a <st_dword>
    265a:	b5 01       	movw	r22, r10
    265c:	a4 01       	movw	r20, r8
    265e:	c8 01       	movw	r24, r16
    2660:	46 96       	adiw	r24, 0x16	; 22
    2662:	0e 94 bd 00 	call	0x17a	; 0x17a <st_dword>
    2666:	60 e0       	ldi	r22, 0x00	; 0
    2668:	70 e0       	ldi	r23, 0x00	; 0
    266a:	c8 01       	movw	r24, r16
    266c:	42 96       	adiw	r24, 0x12	; 18
    266e:	0e 94 b9 00 	call	0x172	; 0x172 <st_word>
    2672:	89 81       	ldd	r24, Y+1	; 0x01
    2674:	9a 81       	ldd	r25, Y+2	; 0x02
    2676:	21 e0       	ldi	r18, 0x01	; 1
    2678:	dc 01       	movw	r26, r24
    267a:	13 96       	adiw	r26, 0x03	; 3
    267c:	2c 93       	st	X, r18
    267e:	28 db       	rcall	.-2480   	; 0x1cd0 <sync_fs>
    2680:	f7 01       	movw	r30, r14
    2682:	96 85       	ldd	r25, Z+14	; 0x0e
    2684:	9f 7b       	andi	r25, 0xBF	; 191
    2686:	96 87       	std	Z+14, r25	; 0x0e
    2688:	01 c0       	rjmp	.+2      	; 0x268c <f_sync+0xf0>
    268a:	81 e0       	ldi	r24, 0x01	; 1
    268c:	0f 90       	pop	r0
    268e:	0f 90       	pop	r0
    2690:	df 91       	pop	r29
    2692:	cf 91       	pop	r28
    2694:	1f 91       	pop	r17
    2696:	0f 91       	pop	r16
    2698:	ff 90       	pop	r15
    269a:	ef 90       	pop	r14
    269c:	bf 90       	pop	r11
    269e:	af 90       	pop	r10
    26a0:	9f 90       	pop	r9
    26a2:	8f 90       	pop	r8
    26a4:	08 95       	ret

000026a6 <f_close>:
    26a6:	0f 93       	push	r16
    26a8:	1f 93       	push	r17
    26aa:	cf 93       	push	r28
    26ac:	df 93       	push	r29
    26ae:	1f 92       	push	r1
    26b0:	1f 92       	push	r1
    26b2:	cd b7       	in	r28, 0x3d	; 61
    26b4:	de b7       	in	r29, 0x3e	; 62
    26b6:	8c 01       	movw	r16, r24
    26b8:	71 df       	rcall	.-286    	; 0x259c <f_sync>
    26ba:	81 11       	cpse	r24, r1
    26bc:	0b c0       	rjmp	.+22     	; 0x26d4 <f_close+0x2e>
    26be:	be 01       	movw	r22, r28
    26c0:	6f 5f       	subi	r22, 0xFF	; 255
    26c2:	7f 4f       	sbci	r23, 0xFF	; 255
    26c4:	c8 01       	movw	r24, r16
    26c6:	0e 94 06 03 	call	0x60c	; 0x60c <validate>
    26ca:	81 11       	cpse	r24, r1
    26cc:	03 c0       	rjmp	.+6      	; 0x26d4 <f_close+0x2e>
    26ce:	f8 01       	movw	r30, r16
    26d0:	11 82       	std	Z+1, r1	; 0x01
    26d2:	10 82       	st	Z, r1
    26d4:	0f 90       	pop	r0
    26d6:	0f 90       	pop	r0
    26d8:	df 91       	pop	r29
    26da:	cf 91       	pop	r28
    26dc:	1f 91       	pop	r17
    26de:	0f 91       	pop	r16
    26e0:	08 95       	ret

000026e2 <f_stat>:

FRESULT f_stat (
	const TCHAR* path,	/* Pointer to the file path */
	FILINFO* fno		/* Pointer to file information to return */
)
{
    26e2:	ef 92       	push	r14
    26e4:	ff 92       	push	r15
    26e6:	1f 93       	push	r17
    26e8:	cf 93       	push	r28
    26ea:	df 93       	push	r29
    26ec:	cd b7       	in	r28, 0x3d	; 61
    26ee:	de b7       	in	r29, 0x3e	; 62
    26f0:	aa 97       	sbiw	r28, 0x2a	; 42
    26f2:	0f b6       	in	r0, 0x3f	; 63
    26f4:	f8 94       	cli
    26f6:	de bf       	out	0x3e, r29	; 62
    26f8:	0f be       	out	0x3f, r0	; 63
    26fa:	cd bf       	out	0x3d, r28	; 61
    26fc:	9a a7       	std	Y+42, r25	; 0x2a
    26fe:	89 a7       	std	Y+41, r24	; 0x29
    2700:	7b 01       	movw	r14, r22
	DIR dj;
	DEF_NAMBUF


	/* Get logical drive */
	res = mount_volume(&path, &dj.obj.fs, 0);
    2702:	40 e0       	ldi	r20, 0x00	; 0
    2704:	be 01       	movw	r22, r28
    2706:	6f 5f       	subi	r22, 0xFF	; 255
    2708:	7f 4f       	sbci	r23, 0xFF	; 255
    270a:	ce 01       	movw	r24, r28
    270c:	89 96       	adiw	r24, 0x29	; 41
    270e:	0e 94 ca 04 	call	0x994	; 0x994 <mount_volume>
    2712:	18 2f       	mov	r17, r24
	if (res == FR_OK) {
    2714:	81 11       	cpse	r24, r1
    2716:	15 c0       	rjmp	.+42     	; 0x2742 <f_stat+0x60>
		INIT_NAMBUF(dj.obj.fs);
		res = follow_path(&dj, path);	/* Follow the file path */
    2718:	69 a5       	ldd	r22, Y+41	; 0x29
    271a:	7a a5       	ldd	r23, Y+42	; 0x2a
    271c:	ce 01       	movw	r24, r28
    271e:	01 96       	adiw	r24, 0x01	; 1
    2720:	fe d9       	rcall	.-3076   	; 0x1b1e <follow_path>
    2722:	18 2f       	mov	r17, r24
		if (res == FR_OK) {				/* Follow completed */
    2724:	81 11       	cpse	r24, r1
    2726:	0d c0       	rjmp	.+26     	; 0x2742 <f_stat+0x60>
			if (dj.fn[NSFLAG] & NS_NONAME) {	/* It is origin directory */
    2728:	88 a5       	ldd	r24, Y+40	; 0x28
    272a:	88 23       	and	r24, r24
    272c:	4c f0       	brlt	.+18     	; 0x2740 <f_stat+0x5e>
				res = FR_INVALID_NAME;
			} else {							/* Found an object */
				if (fno) get_fileinfo(&dj, fno);
    272e:	e1 14       	cp	r14, r1
    2730:	f1 04       	cpc	r15, r1
    2732:	39 f0       	breq	.+14     	; 0x2742 <f_stat+0x60>
    2734:	b7 01       	movw	r22, r14
    2736:	ce 01       	movw	r24, r28
    2738:	01 96       	adiw	r24, 0x01	; 1
    273a:	0e 94 ac 01 	call	0x358	; 0x358 <get_fileinfo>
    273e:	01 c0       	rjmp	.+2      	; 0x2742 <f_stat+0x60>
	if (res == FR_OK) {
		INIT_NAMBUF(dj.obj.fs);
		res = follow_path(&dj, path);	/* Follow the file path */
		if (res == FR_OK) {				/* Follow completed */
			if (dj.fn[NSFLAG] & NS_NONAME) {	/* It is origin directory */
				res = FR_INVALID_NAME;
    2740:	16 e0       	ldi	r17, 0x06	; 6
		}
		FREE_NAMBUF();
	}

	LEAVE_FF(dj.obj.fs, res);
}
    2742:	81 2f       	mov	r24, r17
    2744:	aa 96       	adiw	r28, 0x2a	; 42
    2746:	0f b6       	in	r0, 0x3f	; 63
    2748:	f8 94       	cli
    274a:	de bf       	out	0x3e, r29	; 62
    274c:	0f be       	out	0x3f, r0	; 63
    274e:	cd bf       	out	0x3d, r28	; 61
    2750:	df 91       	pop	r29
    2752:	cf 91       	pop	r28
    2754:	1f 91       	pop	r17
    2756:	ff 90       	pop	r15
    2758:	ef 90       	pop	r14
    275a:	08 95       	ret

0000275c <SPI_init>:
	while (len--) SPI_transmit(*data++);
}

void SPI_receive_multi(uint8_t* data, uint16_t len) {
	while (len--) *data++ = SPI_receive();
}
    275c:	84 b1       	in	r24, 0x04	; 4
    275e:	87 60       	ori	r24, 0x07	; 7
    2760:	84 b9       	out	0x04, r24	; 4
    2762:	84 b1       	in	r24, 0x04	; 4
    2764:	87 7f       	andi	r24, 0xF7	; 247
    2766:	84 b9       	out	0x04, r24	; 4
    2768:	83 e5       	ldi	r24, 0x53	; 83
    276a:	8c bd       	out	0x2c, r24	; 44
    276c:	1d bc       	out	0x2d, r1	; 45
    276e:	85 b1       	in	r24, 0x05	; 5
    2770:	81 60       	ori	r24, 0x01	; 1
    2772:	85 b9       	out	0x05, r24	; 5
    2774:	08 95       	ret

00002776 <SPI_transmit>:
    2776:	8e bd       	out	0x2e, r24	; 46
    2778:	0d b4       	in	r0, 0x2d	; 45
    277a:	07 fe       	sbrs	r0, 7
    277c:	fd cf       	rjmp	.-6      	; 0x2778 <SPI_transmit+0x2>
    277e:	8e b5       	in	r24, 0x2e	; 46
    2780:	08 95       	ret

00002782 <SPI_receive>:
    2782:	8f ef       	ldi	r24, 0xFF	; 255
    2784:	f8 cf       	rjmp	.-16     	; 0x2776 <SPI_transmit>
    2786:	08 95       	ret

00002788 <SPI_send_multi>:
    2788:	0f 93       	push	r16
    278a:	1f 93       	push	r17
    278c:	cf 93       	push	r28
    278e:	df 93       	push	r29
    2790:	fc 01       	movw	r30, r24
    2792:	07 c0       	rjmp	.+14     	; 0x27a2 <SPI_send_multi+0x1a>
    2794:	8f 01       	movw	r16, r30
    2796:	0f 5f       	subi	r16, 0xFF	; 255
    2798:	1f 4f       	sbci	r17, 0xFF	; 255
    279a:	80 81       	ld	r24, Z
    279c:	ec df       	rcall	.-40     	; 0x2776 <SPI_transmit>
    279e:	be 01       	movw	r22, r28
    27a0:	f8 01       	movw	r30, r16
    27a2:	eb 01       	movw	r28, r22
    27a4:	21 97       	sbiw	r28, 0x01	; 1
    27a6:	67 2b       	or	r22, r23
    27a8:	a9 f7       	brne	.-22     	; 0x2794 <SPI_send_multi+0xc>
    27aa:	df 91       	pop	r29
    27ac:	cf 91       	pop	r28
    27ae:	1f 91       	pop	r17
    27b0:	0f 91       	pop	r16
    27b2:	08 95       	ret

000027b4 <SD_send_cmd>:

uint8_t SD_send_cmd(uint8_t cmd, uint32_t arg, uint8_t crc) {
    27b4:	ef 92       	push	r14
    27b6:	ff 92       	push	r15
    27b8:	0f 93       	push	r16
    27ba:	1f 93       	push	r17
    27bc:	cf 93       	push	r28
    27be:	df 93       	push	r29
    27c0:	e8 2e       	mov	r14, r24
    27c2:	d4 2f       	mov	r29, r20
    27c4:	15 2f       	mov	r17, r21
    27c6:	06 2f       	mov	r16, r22
    27c8:	f7 2e       	mov	r15, r23
    27ca:	c2 2f       	mov	r28, r18
	uint8_t response, retry = 0;
	CS_LOW();
    27cc:	85 b1       	in	r24, 0x05	; 5
    27ce:	8e 7f       	andi	r24, 0xFE	; 254
    27d0:	85 b9       	out	0x05, r24	; 5
	SPI_transmit(0xFF);
    27d2:	8f ef       	ldi	r24, 0xFF	; 255
    27d4:	d0 df       	rcall	.-96     	; 0x2776 <SPI_transmit>
	SPI_transmit(0x40 | cmd);
    27d6:	8e 2d       	mov	r24, r14
    27d8:	80 64       	ori	r24, 0x40	; 64
    27da:	cd df       	rcall	.-102    	; 0x2776 <SPI_transmit>
	SPI_transmit((uint8_t)(arg >> 24));
    27dc:	8f 2d       	mov	r24, r15
    27de:	cb df       	rcall	.-106    	; 0x2776 <SPI_transmit>
	SPI_transmit((uint8_t)(arg >> 16));
    27e0:	80 2f       	mov	r24, r16
    27e2:	c9 df       	rcall	.-110    	; 0x2776 <SPI_transmit>
	SPI_transmit((uint8_t)(arg >> 8));
    27e4:	81 2f       	mov	r24, r17
    27e6:	c7 df       	rcall	.-114    	; 0x2776 <SPI_transmit>
	SPI_transmit((uint8_t)arg);
    27e8:	8d 2f       	mov	r24, r29
    27ea:	c5 df       	rcall	.-118    	; 0x2776 <SPI_transmit>
	SPI_transmit(crc);
    27ec:	8c 2f       	mov	r24, r28
    27ee:	c3 df       	rcall	.-122    	; 0x2776 <SPI_transmit>
    27f0:	c0 e0       	ldi	r28, 0x00	; 0
void SPI_receive_multi(uint8_t* data, uint16_t len) {
	while (len--) *data++ = SPI_receive();
}

uint8_t SD_send_cmd(uint8_t cmd, uint32_t arg, uint8_t crc) {
	uint8_t response, retry = 0;
    27f2:	c7 df       	rcall	.-114    	; 0x2782 <SPI_receive>
	SPI_transmit((uint8_t)(arg >> 16));
	SPI_transmit((uint8_t)(arg >> 8));
	SPI_transmit((uint8_t)arg);
	SPI_transmit(crc);
	do {
		response = SPI_receive();
    27f4:	88 23       	and	r24, r24
    27f6:	1c f4       	brge	.+6      	; 0x27fe <SD_send_cmd+0x4a>
	} while ((response & 0x80) && ++retry < 10);
    27f8:	cf 5f       	subi	r28, 0xFF	; 255
    27fa:	ca 30       	cpi	r28, 0x0A	; 10
    27fc:	d0 f3       	brcs	.-12     	; 0x27f2 <SD_send_cmd+0x3e>
    27fe:	df 91       	pop	r29
    2800:	cf 91       	pop	r28
	return response;
}
    2802:	1f 91       	pop	r17
    2804:	0f 91       	pop	r16
    2806:	ff 90       	pop	r15
    2808:	ef 90       	pop	r14
    280a:	08 95       	ret

0000280c <SD_init>:
    280c:	cf 93       	push	r28
    280e:	df 93       	push	r29

uint8_t SD_init(void) {
	uint8_t i, response;
	SPI_init();
    2810:	a5 df       	rcall	.-182    	; 0x275c <SPI_init>
	CS_HIGH();
    2812:	85 b1       	in	r24, 0x05	; 5
    2814:	81 60       	ori	r24, 0x01	; 1
    2816:	85 b9       	out	0x05, r24	; 5
	for (i = 0; i < 10; i++) SPI_transmit(0xFF);
    2818:	c0 e0       	ldi	r28, 0x00	; 0
    281a:	03 c0       	rjmp	.+6      	; 0x2822 <SD_init+0x16>
    281c:	8f ef       	ldi	r24, 0xFF	; 255
    281e:	ab df       	rcall	.-170    	; 0x2776 <SPI_transmit>
    2820:	cf 5f       	subi	r28, 0xFF	; 255
    2822:	ca 30       	cpi	r28, 0x0A	; 10
    2824:	d8 f3       	brcs	.-10     	; 0x281c <SD_init+0x10>
    2826:	c0 e0       	ldi	r28, 0x00	; 0
    2828:	15 c0       	rjmp	.+42     	; 0x2854 <SD_init+0x48>
	for (i = 0; i < 10; i++) {
		response = SD_send_cmd(CMD0, 0, 0x95);
    282a:	25 e9       	ldi	r18, 0x95	; 149
    282c:	40 e0       	ldi	r20, 0x00	; 0
    282e:	50 e0       	ldi	r21, 0x00	; 0
    2830:	ba 01       	movw	r22, r20
    2832:	80 e0       	ldi	r24, 0x00	; 0
    2834:	bf df       	rcall	.-130    	; 0x27b4 <SD_send_cmd>
    2836:	d8 2f       	mov	r29, r24
		CS_HIGH(); SPI_transmit(0xFF);
    2838:	85 b1       	in	r24, 0x05	; 5
    283a:	81 60       	ori	r24, 0x01	; 1
    283c:	85 b9       	out	0x05, r24	; 5
    283e:	8f ef       	ldi	r24, 0xFF	; 255
    2840:	9a df       	rcall	.-204    	; 0x2776 <SPI_transmit>
		if (response == 0x01) break;
    2842:	d1 30       	cpi	r29, 0x01	; 1
    2844:	49 f0       	breq	.+18     	; 0x2858 <SD_init+0x4c>
	#else
		//round up by default
		__ticks_dc = (uint32_t)(ceil(fabs(__tmp)));
	#endif

	__builtin_avr_delay_cycles(__ticks_dc);
    2846:	8f e3       	ldi	r24, 0x3F	; 63
    2848:	9c e9       	ldi	r25, 0x9C	; 156
    284a:	01 97       	sbiw	r24, 0x01	; 1
    284c:	f1 f7       	brne	.-4      	; 0x284a <SD_init+0x3e>
    284e:	00 c0       	rjmp	.+0      	; 0x2850 <SD_init+0x44>
    2850:	00 00       	nop
uint8_t SD_init(void) {
	uint8_t i, response;
	SPI_init();
	CS_HIGH();
	for (i = 0; i < 10; i++) SPI_transmit(0xFF);
	for (i = 0; i < 10; i++) {
    2852:	cf 5f       	subi	r28, 0xFF	; 255
    2854:	ca 30       	cpi	r28, 0x0A	; 10
    2856:	48 f3       	brcs	.-46     	; 0x282a <SD_init+0x1e>
		response = SD_send_cmd(CMD0, 0, 0x95);
		CS_HIGH(); SPI_transmit(0xFF);
		if (response == 0x01) break;
		_delay_ms(10);
	}
	if (response != 0x01) return 1;
    2858:	d1 30       	cpi	r29, 0x01	; 1
    285a:	09 f0       	breq	.+2      	; 0x285e <SD_init+0x52>
    285c:	4d c0       	rjmp	.+154    	; 0x28f8 <SD_init+0xec>
	response = SD_send_cmd(CMD8, 0x1AA, 0x87);
    285e:	27 e8       	ldi	r18, 0x87	; 135
    2860:	4a ea       	ldi	r20, 0xAA	; 170
    2862:	51 e0       	ldi	r21, 0x01	; 1
    2864:	60 e0       	ldi	r22, 0x00	; 0
    2866:	70 e0       	ldi	r23, 0x00	; 0
    2868:	88 e0       	ldi	r24, 0x08	; 8
    286a:	a4 df       	rcall	.-184    	; 0x27b4 <SD_send_cmd>
	for (i = 0; i < 4; i++) SPI_receive();
    286c:	d8 2f       	mov	r29, r24
    286e:	c0 e0       	ldi	r28, 0x00	; 0
    2870:	02 c0       	rjmp	.+4      	; 0x2876 <SD_init+0x6a>
    2872:	87 df       	rcall	.-242    	; 0x2782 <SPI_receive>
    2874:	cf 5f       	subi	r28, 0xFF	; 255
    2876:	c4 30       	cpi	r28, 0x04	; 4
	CS_HIGH(); SPI_transmit(0xFF);
    2878:	e0 f3       	brcs	.-8      	; 0x2872 <SD_init+0x66>
    287a:	85 b1       	in	r24, 0x05	; 5
    287c:	81 60       	ori	r24, 0x01	; 1
    287e:	85 b9       	out	0x05, r24	; 5
    2880:	8f ef       	ldi	r24, 0xFF	; 255
    2882:	79 df       	rcall	.-270    	; 0x2776 <SPI_transmit>
	if (response != 0x01) return 2;
    2884:	d1 30       	cpi	r29, 0x01	; 1
    2886:	09 f0       	breq	.+2      	; 0x288a <SD_init+0x7e>
    2888:	39 c0       	rjmp	.+114    	; 0x28fc <SD_init+0xf0>
    288a:	c0 e0       	ldi	r28, 0x00	; 0
	for (i = 0; i < 100; i++) {
		SD_send_cmd(CMD55, 0, 0x65);
    288c:	1c c0       	rjmp	.+56     	; 0x28c6 <SD_init+0xba>
    288e:	25 e6       	ldi	r18, 0x65	; 101
    2890:	40 e0       	ldi	r20, 0x00	; 0
    2892:	50 e0       	ldi	r21, 0x00	; 0
    2894:	ba 01       	movw	r22, r20
    2896:	87 e3       	ldi	r24, 0x37	; 55
		response = SD_send_cmd(ACMD41, 0x40000000, 0x77);
    2898:	8d df       	rcall	.-230    	; 0x27b4 <SD_send_cmd>
    289a:	27 e7       	ldi	r18, 0x77	; 119
    289c:	40 e0       	ldi	r20, 0x00	; 0
    289e:	50 e0       	ldi	r21, 0x00	; 0
    28a0:	60 e0       	ldi	r22, 0x00	; 0
    28a2:	70 e4       	ldi	r23, 0x40	; 64
    28a4:	89 e2       	ldi	r24, 0x29	; 41
    28a6:	86 df       	rcall	.-244    	; 0x27b4 <SD_send_cmd>
		CS_HIGH(); SPI_transmit(0xFF);
    28a8:	d8 2f       	mov	r29, r24
    28aa:	85 b1       	in	r24, 0x05	; 5
    28ac:	81 60       	ori	r24, 0x01	; 1
    28ae:	85 b9       	out	0x05, r24	; 5
    28b0:	8f ef       	ldi	r24, 0xFF	; 255
    28b2:	61 df       	rcall	.-318    	; 0x2776 <SPI_transmit>
		if (response == 0x00) break;
    28b4:	dd 23       	and	r29, r29
    28b6:	49 f0       	breq	.+18     	; 0x28ca <SD_init+0xbe>
    28b8:	8f e3       	ldi	r24, 0x3F	; 63
    28ba:	9c e9       	ldi	r25, 0x9C	; 156
    28bc:	01 97       	sbiw	r24, 0x01	; 1
    28be:	f1 f7       	brne	.-4      	; 0x28bc <SD_init+0xb0>
    28c0:	00 c0       	rjmp	.+0      	; 0x28c2 <SD_init+0xb6>
    28c2:	00 00       	nop
	if (response != 0x01) return 1;
	response = SD_send_cmd(CMD8, 0x1AA, 0x87);
	for (i = 0; i < 4; i++) SPI_receive();
	CS_HIGH(); SPI_transmit(0xFF);
	if (response != 0x01) return 2;
	for (i = 0; i < 100; i++) {
    28c4:	cf 5f       	subi	r28, 0xFF	; 255
    28c6:	c4 36       	cpi	r28, 0x64	; 100
		response = SD_send_cmd(ACMD41, 0x40000000, 0x77);
		CS_HIGH(); SPI_transmit(0xFF);
		if (response == 0x00) break;
		_delay_ms(10);
	}
	if (response != 0x00) return 3;
    28c8:	10 f3       	brcs	.-60     	; 0x288e <SD_init+0x82>
	response = SD_send_cmd(CMD58, 0, 0);
    28ca:	d1 11       	cpse	r29, r1
    28cc:	19 c0       	rjmp	.+50     	; 0x2900 <SD_init+0xf4>
    28ce:	20 e0       	ldi	r18, 0x00	; 0
    28d0:	40 e0       	ldi	r20, 0x00	; 0
    28d2:	50 e0       	ldi	r21, 0x00	; 0
    28d4:	ba 01       	movw	r22, r20
	for (i = 0; i < 4; i++) SPI_receive();
    28d6:	8a e3       	ldi	r24, 0x3A	; 58
    28d8:	6d df       	rcall	.-294    	; 0x27b4 <SD_send_cmd>
    28da:	c0 e0       	ldi	r28, 0x00	; 0
    28dc:	02 c0       	rjmp	.+4      	; 0x28e2 <SD_init+0xd6>
    28de:	51 df       	rcall	.-350    	; 0x2782 <SPI_receive>
    28e0:	cf 5f       	subi	r28, 0xFF	; 255
    28e2:	c4 30       	cpi	r28, 0x04	; 4
	CS_HIGH(); SPI_transmit(0xFF);
    28e4:	e0 f3       	brcs	.-8      	; 0x28de <SD_init+0xd2>
    28e6:	85 b1       	in	r24, 0x05	; 5
    28e8:	81 60       	ori	r24, 0x01	; 1
    28ea:	85 b9       	out	0x05, r24	; 5
    28ec:	8f ef       	ldi	r24, 0xFF	; 255
    28ee:	43 df       	rcall	.-378    	; 0x2776 <SPI_transmit>
	SPCR = (1<<SPE)|(1<<MSTR);
    28f0:	80 e5       	ldi	r24, 0x50	; 80
    28f2:	8c bd       	out	0x2c, r24	; 44
	return 0;
    28f4:	80 e0       	ldi	r24, 0x00	; 0
    28f6:	05 c0       	rjmp	.+10     	; 0x2902 <SD_init+0xf6>
		response = SD_send_cmd(CMD0, 0, 0x95);
		CS_HIGH(); SPI_transmit(0xFF);
		if (response == 0x01) break;
		_delay_ms(10);
	}
	if (response != 0x01) return 1;
    28f8:	81 e0       	ldi	r24, 0x01	; 1
    28fa:	03 c0       	rjmp	.+6      	; 0x2902 <SD_init+0xf6>
	response = SD_send_cmd(CMD8, 0x1AA, 0x87);
	for (i = 0; i < 4; i++) SPI_receive();
	CS_HIGH(); SPI_transmit(0xFF);
	if (response != 0x01) return 2;
    28fc:	82 e0       	ldi	r24, 0x02	; 2
    28fe:	01 c0       	rjmp	.+2      	; 0x2902 <SD_init+0xf6>
		response = SD_send_cmd(ACMD41, 0x40000000, 0x77);
		CS_HIGH(); SPI_transmit(0xFF);
		if (response == 0x00) break;
		_delay_ms(10);
	}
	if (response != 0x00) return 3;
    2900:	83 e0       	ldi	r24, 0x03	; 3
	response = SD_send_cmd(CMD58, 0, 0);
	for (i = 0; i < 4; i++) SPI_receive();
	CS_HIGH(); SPI_transmit(0xFF);
	SPCR = (1<<SPE)|(1<<MSTR);
	return 0;
}
    2902:	df 91       	pop	r29
    2904:	cf 91       	pop	r28
    2906:	08 95       	ret

00002908 <SD_writeSingleBlock>:

uint8_t SD_writeSingleBlock(uint32_t block, const uint8_t* buff) {
    2908:	cf 93       	push	r28
    290a:	df 93       	push	r29
    290c:	ea 01       	movw	r28, r20
	uint8_t response;
	response = SD_send_cmd(CMD24, block, 0x01);
    290e:	21 e0       	ldi	r18, 0x01	; 1
    2910:	ab 01       	movw	r20, r22
    2912:	bc 01       	movw	r22, r24
    2914:	88 e1       	ldi	r24, 0x18	; 24
    2916:	4e df       	rcall	.-356    	; 0x27b4 <SD_send_cmd>
	if (response != 0x00) { CS_HIGH(); return 1; }
    2918:	88 23       	and	r24, r24
    291a:	29 f0       	breq	.+10     	; 0x2926 <SD_writeSingleBlock+0x1e>
    291c:	85 b1       	in	r24, 0x05	; 5
    291e:	81 60       	ori	r24, 0x01	; 1
    2920:	85 b9       	out	0x05, r24	; 5
    2922:	81 e0       	ldi	r24, 0x01	; 1
    2924:	1e c0       	rjmp	.+60     	; 0x2962 <SD_writeSingleBlock+0x5a>
	SPI_transmit(0xFF);
    2926:	8f ef       	ldi	r24, 0xFF	; 255
    2928:	26 df       	rcall	.-436    	; 0x2776 <SPI_transmit>
	SPI_transmit(0xFE);
    292a:	8e ef       	ldi	r24, 0xFE	; 254
    292c:	24 df       	rcall	.-440    	; 0x2776 <SPI_transmit>
    292e:	60 e0       	ldi	r22, 0x00	; 0
	SPI_send_multi(buff, 512);
    2930:	72 e0       	ldi	r23, 0x02	; 2
    2932:	ce 01       	movw	r24, r28
    2934:	29 df       	rcall	.-430    	; 0x2788 <SPI_send_multi>
	SPI_transmit(0xFF);
    2936:	8f ef       	ldi	r24, 0xFF	; 255
    2938:	1e df       	rcall	.-452    	; 0x2776 <SPI_transmit>
	SPI_transmit(0xFF);
    293a:	8f ef       	ldi	r24, 0xFF	; 255
    293c:	1c df       	rcall	.-456    	; 0x2776 <SPI_transmit>
    293e:	21 df       	rcall	.-446    	; 0x2782 <SPI_receive>
	response = SPI_receive();
    2940:	8f 71       	andi	r24, 0x1F	; 31
    2942:	85 30       	cpi	r24, 0x05	; 5
	if ((response & 0x1F) != 0x05) { CS_HIGH(); return 2; }
    2944:	29 f0       	breq	.+10     	; 0x2950 <SD_writeSingleBlock+0x48>
    2946:	85 b1       	in	r24, 0x05	; 5
    2948:	81 60       	ori	r24, 0x01	; 1
    294a:	85 b9       	out	0x05, r24	; 5
    294c:	82 e0       	ldi	r24, 0x02	; 2
    294e:	09 c0       	rjmp	.+18     	; 0x2962 <SD_writeSingleBlock+0x5a>
    2950:	18 df       	rcall	.-464    	; 0x2782 <SPI_receive>
	while (SPI_receive() == 0x00);
    2952:	88 23       	and	r24, r24
    2954:	e9 f3       	breq	.-6      	; 0x2950 <SD_writeSingleBlock+0x48>
    2956:	85 b1       	in	r24, 0x05	; 5
	CS_HIGH();
    2958:	81 60       	ori	r24, 0x01	; 1
    295a:	85 b9       	out	0x05, r24	; 5
    295c:	8f ef       	ldi	r24, 0xFF	; 255
	SPI_transmit(0xFF);
    295e:	0b df       	rcall	.-490    	; 0x2776 <SPI_transmit>
    2960:	80 e0       	ldi	r24, 0x00	; 0
    2962:	df 91       	pop	r29
	return 0;
    2964:	cf 91       	pop	r28
}
    2966:	08 95       	ret

00002968 <SD_readSingleBlock>:
    2968:	ef 92       	push	r14
    296a:	ff 92       	push	r15

uint8_t SD_readSingleBlock(uint32_t block, uint8_t* buff) {
    296c:	0f 93       	push	r16
    296e:	1f 93       	push	r17
    2970:	cf 93       	push	r28
    2972:	df 93       	push	r29
    2974:	7a 01       	movw	r14, r20
	uint8_t response;
	uint16_t i;
	response = SD_send_cmd(CMD17, block, 0x01);
    2976:	21 e0       	ldi	r18, 0x01	; 1
    2978:	ab 01       	movw	r20, r22
    297a:	bc 01       	movw	r22, r24
    297c:	81 e1       	ldi	r24, 0x11	; 17
    297e:	1a df       	rcall	.-460    	; 0x27b4 <SD_send_cmd>
	if (response != 0x00) { CS_HIGH(); return 1; }
    2980:	88 23       	and	r24, r24
    2982:	51 f0       	breq	.+20     	; 0x2998 <SD_readSingleBlock+0x30>
    2984:	85 b1       	in	r24, 0x05	; 5
    2986:	81 60       	ori	r24, 0x01	; 1
    2988:	85 b9       	out	0x05, r24	; 5
    298a:	81 e0       	ldi	r24, 0x01	; 1
	for (i = 0; i < 0xFFFF; i++) {
		response = SPI_receive();
    298c:	28 c0       	rjmp	.+80     	; 0x29de <SD_readSingleBlock+0x76>
    298e:	f9 de       	rcall	.-526    	; 0x2782 <SPI_receive>
		if (response == 0xFE) break;
    2990:	8e 3f       	cpi	r24, 0xFE	; 254
    2992:	41 f0       	breq	.+16     	; 0x29a4 <SD_readSingleBlock+0x3c>
uint8_t SD_readSingleBlock(uint32_t block, uint8_t* buff) {
	uint8_t response;
	uint16_t i;
	response = SD_send_cmd(CMD17, block, 0x01);
	if (response != 0x00) { CS_HIGH(); return 1; }
	for (i = 0; i < 0xFFFF; i++) {
    2994:	21 96       	adiw	r28, 0x01	; 1
    2996:	02 c0       	rjmp	.+4      	; 0x299c <SD_readSingleBlock+0x34>
    2998:	c0 e0       	ldi	r28, 0x00	; 0
    299a:	d0 e0       	ldi	r29, 0x00	; 0
    299c:	cf 3f       	cpi	r28, 0xFF	; 255
    299e:	9f ef       	ldi	r25, 0xFF	; 255
    29a0:	d9 07       	cpc	r29, r25
    29a2:	a9 f7       	brne	.-22     	; 0x298e <SD_readSingleBlock+0x26>
		response = SPI_receive();
		if (response == 0xFE) break;
	}
	if (response != 0xFE) { CS_HIGH(); return 2; }
    29a4:	8e 3f       	cpi	r24, 0xFE	; 254
    29a6:	69 f0       	breq	.+26     	; 0x29c2 <SD_readSingleBlock+0x5a>
    29a8:	85 b1       	in	r24, 0x05	; 5
    29aa:	81 60       	ori	r24, 0x01	; 1
    29ac:	85 b9       	out	0x05, r24	; 5
    29ae:	82 e0       	ldi	r24, 0x02	; 2
    29b0:	16 c0       	rjmp	.+44     	; 0x29de <SD_readSingleBlock+0x76>
	for (i = 0; i < 512; i++) buff[i] = SPI_receive();
    29b2:	87 01       	movw	r16, r14
    29b4:	0c 0f       	add	r16, r28
    29b6:	1d 1f       	adc	r17, r29
    29b8:	e4 de       	rcall	.-568    	; 0x2782 <SPI_receive>
    29ba:	f8 01       	movw	r30, r16
    29bc:	80 83       	st	Z, r24
    29be:	21 96       	adiw	r28, 0x01	; 1
    29c0:	02 c0       	rjmp	.+4      	; 0x29c6 <SD_readSingleBlock+0x5e>
    29c2:	c0 e0       	ldi	r28, 0x00	; 0
    29c4:	d0 e0       	ldi	r29, 0x00	; 0
    29c6:	c1 15       	cp	r28, r1
    29c8:	f2 e0       	ldi	r31, 0x02	; 2
	SPI_receive();
    29ca:	df 07       	cpc	r29, r31
    29cc:	90 f3       	brcs	.-28     	; 0x29b2 <SD_readSingleBlock+0x4a>
	SPI_receive();
    29ce:	d9 de       	rcall	.-590    	; 0x2782 <SPI_receive>
	CS_HIGH();
    29d0:	d8 de       	rcall	.-592    	; 0x2782 <SPI_receive>
    29d2:	85 b1       	in	r24, 0x05	; 5
    29d4:	81 60       	ori	r24, 0x01	; 1
	SPI_transmit(0xFF);
    29d6:	85 b9       	out	0x05, r24	; 5
    29d8:	8f ef       	ldi	r24, 0xFF	; 255
    29da:	cd de       	rcall	.-614    	; 0x2776 <SPI_transmit>
	return 0;
    29dc:	80 e0       	ldi	r24, 0x00	; 0
}
    29de:	df 91       	pop	r29
    29e0:	cf 91       	pop	r28
    29e2:	1f 91       	pop	r17
    29e4:	0f 91       	pop	r16
    29e6:	ff 90       	pop	r15
    29e8:	ef 90       	pop	r14
    29ea:	08 95       	ret

000029ec <disk_status>:

DSTATUS disk_status(BYTE pdrv) {
	if (pdrv != DEV_MMC) return STA_NOINIT;
    29ec:	81 11       	cpse	r24, r1
    29ee:	03 c0       	rjmp	.+6      	; 0x29f6 <disk_status+0xa>
	return Stat;
    29f0:	80 91 00 02 	lds	r24, 0x0200	; 0x800200 <__DATA_REGION_ORIGIN__>
    29f4:	08 95       	ret
	SPI_transmit(0xFF);
	return 0;
}

DSTATUS disk_status(BYTE pdrv) {
	if (pdrv != DEV_MMC) return STA_NOINIT;
    29f6:	81 e0       	ldi	r24, 0x01	; 1
	return Stat;
}
    29f8:	08 95       	ret

000029fa <disk_initialize>:
DSTATUS disk_initialize(BYTE pdrv) {
	if (pdrv != DEV_MMC) return STA_NOINIT;
    29fa:	81 11       	cpse	r24, r1
    29fc:	10 c0       	rjmp	.+32     	; 0x2a1e <disk_initialize+0x24>
	if (SD_init() == 0) {
    29fe:	06 df       	rcall	.-500    	; 0x280c <SD_init>
    2a00:	81 11       	cpse	r24, r1
    2a02:	06 c0       	rjmp	.+12     	; 0x2a10 <disk_initialize+0x16>
		Stat &= ~STA_NOINIT;
    2a04:	90 91 00 02 	lds	r25, 0x0200	; 0x800200 <__DATA_REGION_ORIGIN__>
    2a08:	9e 7f       	andi	r25, 0xFE	; 254
    2a0a:	90 93 00 02 	sts	0x0200, r25	; 0x800200 <__DATA_REGION_ORIGIN__>
		return RES_OK;
    2a0e:	08 95       	ret
		} else {
		Stat |= STA_NOINIT;
    2a10:	80 91 00 02 	lds	r24, 0x0200	; 0x800200 <__DATA_REGION_ORIGIN__>
    2a14:	81 60       	ori	r24, 0x01	; 1
    2a16:	80 93 00 02 	sts	0x0200, r24	; 0x800200 <__DATA_REGION_ORIGIN__>
		return RES_ERROR;
    2a1a:	81 e0       	ldi	r24, 0x01	; 1
    2a1c:	08 95       	ret
DSTATUS disk_status(BYTE pdrv) {
	if (pdrv != DEV_MMC) return STA_NOINIT;
	return Stat;
}
DSTATUS disk_initialize(BYTE pdrv) {
	if (pdrv != DEV_MMC) return STA_NOINIT;
    2a1e:	81 e0       	ldi	r24, 0x01	; 1
		return RES_OK;
		} else {
		Stat |= STA_NOINIT;
		return RES_ERROR;
	}
}
    2a20:	08 95       	ret

00002a22 <disk_read>:
DRESULT disk_read(BYTE pdrv, BYTE* buff, LBA_t sector, UINT count) {
    2a22:	8f 92       	push	r8
    2a24:	9f 92       	push	r9
    2a26:	af 92       	push	r10
    2a28:	bf 92       	push	r11
    2a2a:	ef 92       	push	r14
    2a2c:	ff 92       	push	r15
    2a2e:	0f 93       	push	r16
    2a30:	1f 93       	push	r17
    2a32:	cf 93       	push	r28
    2a34:	df 93       	push	r29
	if (pdrv != DEV_MMC) return RES_PARERR;
    2a36:	81 11       	cpse	r24, r1
    2a38:	22 c0       	rjmp	.+68     	; 0x2a7e <disk_read+0x5c>
	if (count == 0) return RES_PARERR;
    2a3a:	01 15       	cp	r16, r1
    2a3c:	11 05       	cpc	r17, r1
    2a3e:	09 f1       	breq	.+66     	; 0x2a82 <disk_read+0x60>
	if (Stat & STA_NOINIT) return RES_NOTRDY;
    2a40:	80 91 00 02 	lds	r24, 0x0200	; 0x800200 <__DATA_REGION_ORIGIN__>
    2a44:	80 fd       	sbrc	r24, 0
    2a46:	1f c0       	rjmp	.+62     	; 0x2a86 <disk_read+0x64>
    2a48:	49 01       	movw	r8, r18
    2a4a:	5a 01       	movw	r10, r20
    2a4c:	7b 01       	movw	r14, r22
    2a4e:	c0 e0       	ldi	r28, 0x00	; 0
    2a50:	d0 e0       	ldi	r29, 0x00	; 0
    2a52:	10 c0       	rjmp	.+32     	; 0x2a74 <disk_read+0x52>
	for (UINT i = 0; i < count; i++) {
		if (SD_readSingleBlock(sector + i, buff + 512 * i) != 0) {
    2a54:	ae 01       	movw	r20, r28
    2a56:	54 2f       	mov	r21, r20
    2a58:	44 27       	eor	r20, r20
    2a5a:	55 0f       	add	r21, r21
    2a5c:	4e 0d       	add	r20, r14
    2a5e:	5f 1d       	adc	r21, r15
    2a60:	c5 01       	movw	r24, r10
    2a62:	b4 01       	movw	r22, r8
    2a64:	6c 0f       	add	r22, r28
    2a66:	7d 1f       	adc	r23, r29
    2a68:	81 1d       	adc	r24, r1
    2a6a:	91 1d       	adc	r25, r1
    2a6c:	7d df       	rcall	.-262    	; 0x2968 <SD_readSingleBlock>
    2a6e:	81 11       	cpse	r24, r1
    2a70:	0c c0       	rjmp	.+24     	; 0x2a8a <disk_read+0x68>
}
DRESULT disk_read(BYTE pdrv, BYTE* buff, LBA_t sector, UINT count) {
	if (pdrv != DEV_MMC) return RES_PARERR;
	if (count == 0) return RES_PARERR;
	if (Stat & STA_NOINIT) return RES_NOTRDY;
	for (UINT i = 0; i < count; i++) {
    2a72:	21 96       	adiw	r28, 0x01	; 1
    2a74:	c0 17       	cp	r28, r16
    2a76:	d1 07       	cpc	r29, r17
    2a78:	68 f3       	brcs	.-38     	; 0x2a54 <disk_read+0x32>
		if (SD_readSingleBlock(sector + i, buff + 512 * i) != 0) {
			return RES_ERROR;
		}
	}
	return RES_OK;
    2a7a:	80 e0       	ldi	r24, 0x00	; 0
    2a7c:	07 c0       	rjmp	.+14     	; 0x2a8c <disk_read+0x6a>
		Stat |= STA_NOINIT;
		return RES_ERROR;
	}
}
DRESULT disk_read(BYTE pdrv, BYTE* buff, LBA_t sector, UINT count) {
	if (pdrv != DEV_MMC) return RES_PARERR;
    2a7e:	84 e0       	ldi	r24, 0x04	; 4
    2a80:	05 c0       	rjmp	.+10     	; 0x2a8c <disk_read+0x6a>
	if (count == 0) return RES_PARERR;
    2a82:	84 e0       	ldi	r24, 0x04	; 4
    2a84:	03 c0       	rjmp	.+6      	; 0x2a8c <disk_read+0x6a>
	if (Stat & STA_NOINIT) return RES_NOTRDY;
    2a86:	83 e0       	ldi	r24, 0x03	; 3
    2a88:	01 c0       	rjmp	.+2      	; 0x2a8c <disk_read+0x6a>
	for (UINT i = 0; i < count; i++) {
		if (SD_readSingleBlock(sector + i, buff + 512 * i) != 0) {
			return RES_ERROR;
    2a8a:	81 e0       	ldi	r24, 0x01	; 1
		}
	}
	return RES_OK;
}
    2a8c:	df 91       	pop	r29
    2a8e:	cf 91       	pop	r28
    2a90:	1f 91       	pop	r17
    2a92:	0f 91       	pop	r16
    2a94:	ff 90       	pop	r15
    2a96:	ef 90       	pop	r14
    2a98:	bf 90       	pop	r11
    2a9a:	af 90       	pop	r10
    2a9c:	9f 90       	pop	r9
    2a9e:	8f 90       	pop	r8
    2aa0:	08 95       	ret

00002aa2 <disk_write>:
DRESULT disk_write(BYTE pdrv, const BYTE* buff, LBA_t sector, UINT count) {
    2aa2:	8f 92       	push	r8
    2aa4:	9f 92       	push	r9
    2aa6:	af 92       	push	r10
    2aa8:	bf 92       	push	r11
    2aaa:	ef 92       	push	r14
    2aac:	ff 92       	push	r15
    2aae:	0f 93       	push	r16
    2ab0:	1f 93       	push	r17
    2ab2:	cf 93       	push	r28
    2ab4:	df 93       	push	r29
	if (pdrv != DEV_MMC) return RES_PARERR;
    2ab6:	81 11       	cpse	r24, r1
    2ab8:	22 c0       	rjmp	.+68     	; 0x2afe <disk_write+0x5c>
	if (count == 0) return RES_PARERR;
    2aba:	01 15       	cp	r16, r1
    2abc:	11 05       	cpc	r17, r1
    2abe:	09 f1       	breq	.+66     	; 0x2b02 <disk_write+0x60>
	if (Stat & STA_NOINIT) return RES_NOTRDY;
    2ac0:	80 91 00 02 	lds	r24, 0x0200	; 0x800200 <__DATA_REGION_ORIGIN__>
    2ac4:	80 fd       	sbrc	r24, 0
    2ac6:	1f c0       	rjmp	.+62     	; 0x2b06 <disk_write+0x64>
    2ac8:	49 01       	movw	r8, r18
    2aca:	5a 01       	movw	r10, r20
    2acc:	7b 01       	movw	r14, r22
    2ace:	c0 e0       	ldi	r28, 0x00	; 0
    2ad0:	d0 e0       	ldi	r29, 0x00	; 0
    2ad2:	10 c0       	rjmp	.+32     	; 0x2af4 <disk_write+0x52>
	for (UINT i = 0; i < count; i++) {
		if (SD_writeSingleBlock(sector + i, buff + 512 * i) != 0) {
    2ad4:	ae 01       	movw	r20, r28
    2ad6:	54 2f       	mov	r21, r20
    2ad8:	44 27       	eor	r20, r20
    2ada:	55 0f       	add	r21, r21
    2adc:	4e 0d       	add	r20, r14
    2ade:	5f 1d       	adc	r21, r15
    2ae0:	c5 01       	movw	r24, r10
    2ae2:	b4 01       	movw	r22, r8
    2ae4:	6c 0f       	add	r22, r28
    2ae6:	7d 1f       	adc	r23, r29
    2ae8:	81 1d       	adc	r24, r1
    2aea:	91 1d       	adc	r25, r1
    2aec:	0d df       	rcall	.-486    	; 0x2908 <SD_writeSingleBlock>
    2aee:	81 11       	cpse	r24, r1
    2af0:	0c c0       	rjmp	.+24     	; 0x2b0a <disk_write+0x68>
}
DRESULT disk_write(BYTE pdrv, const BYTE* buff, LBA_t sector, UINT count) {
	if (pdrv != DEV_MMC) return RES_PARERR;
	if (count == 0) return RES_PARERR;
	if (Stat & STA_NOINIT) return RES_NOTRDY;
	for (UINT i = 0; i < count; i++) {
    2af2:	21 96       	adiw	r28, 0x01	; 1
    2af4:	c0 17       	cp	r28, r16
    2af6:	d1 07       	cpc	r29, r17
    2af8:	68 f3       	brcs	.-38     	; 0x2ad4 <disk_write+0x32>
		if (SD_writeSingleBlock(sector + i, buff + 512 * i) != 0) {
			return RES_ERROR;
		}
	}
	return RES_OK;
    2afa:	80 e0       	ldi	r24, 0x00	; 0
    2afc:	07 c0       	rjmp	.+14     	; 0x2b0c <disk_write+0x6a>
		}
	}
	return RES_OK;
}
DRESULT disk_write(BYTE pdrv, const BYTE* buff, LBA_t sector, UINT count) {
	if (pdrv != DEV_MMC) return RES_PARERR;
    2afe:	84 e0       	ldi	r24, 0x04	; 4
    2b00:	05 c0       	rjmp	.+10     	; 0x2b0c <disk_write+0x6a>
	if (count == 0) return RES_PARERR;
    2b02:	84 e0       	ldi	r24, 0x04	; 4
    2b04:	03 c0       	rjmp	.+6      	; 0x2b0c <disk_write+0x6a>
	if (Stat & STA_NOINIT) return RES_NOTRDY;
    2b06:	83 e0       	ldi	r24, 0x03	; 3
    2b08:	01 c0       	rjmp	.+2      	; 0x2b0c <disk_write+0x6a>
	for (UINT i = 0; i < count; i++) {
		if (SD_writeSingleBlock(sector + i, buff + 512 * i) != 0) {
			return RES_ERROR;
    2b0a:	81 e0       	ldi	r24, 0x01	; 1
		}
	}
	return RES_OK;
}
    2b0c:	df 91       	pop	r29
    2b0e:	cf 91       	pop	r28
    2b10:	1f 91       	pop	r17
    2b12:	0f 91       	pop	r16
    2b14:	ff 90       	pop	r15
    2b16:	ef 90       	pop	r14
    2b18:	bf 90       	pop	r11
    2b1a:	af 90       	pop	r10
    2b1c:	9f 90       	pop	r9
    2b1e:	8f 90       	pop	r8
    2b20:	08 95       	ret

00002b22 <disk_ioctl>:
DRESULT disk_ioctl(BYTE pdrv, BYTE cmd, void* buff) {
	if (pdrv != DEV_MMC) return RES_PARERR;
    2b22:	81 11       	cpse	r24, r1
    2b24:	29 c0       	rjmp	.+82     	; 0x2b78 <disk_ioctl+0x56>
	switch (cmd) {
    2b26:	61 30       	cpi	r22, 0x01	; 1
    2b28:	e1 f0       	breq	.+56     	; 0x2b62 <disk_ioctl+0x40>
    2b2a:	28 f0       	brcs	.+10     	; 0x2b36 <disk_ioctl+0x14>
    2b2c:	62 30       	cpi	r22, 0x02	; 2
    2b2e:	39 f0       	breq	.+14     	; 0x2b3e <disk_ioctl+0x1c>
    2b30:	63 30       	cpi	r22, 0x03	; 3
    2b32:	61 f0       	breq	.+24     	; 0x2b4c <disk_ioctl+0x2a>
    2b34:	23 c0       	rjmp	.+70     	; 0x2b7c <disk_ioctl+0x5a>
		case CTRL_SYNC: *(BYTE*)buff = 0; return RES_OK;
    2b36:	fa 01       	movw	r30, r20
    2b38:	10 82       	st	Z, r1
    2b3a:	80 e0       	ldi	r24, 0x00	; 0
    2b3c:	08 95       	ret
		case GET_SECTOR_SIZE: *(WORD*)buff = 512; return RES_OK;
    2b3e:	80 e0       	ldi	r24, 0x00	; 0
    2b40:	92 e0       	ldi	r25, 0x02	; 2
    2b42:	fa 01       	movw	r30, r20
    2b44:	91 83       	std	Z+1, r25	; 0x01
    2b46:	80 83       	st	Z, r24
    2b48:	80 e0       	ldi	r24, 0x00	; 0
    2b4a:	08 95       	ret
		case GET_BLOCK_SIZE: *(DWORD*)buff = 1; return RES_OK;
    2b4c:	81 e0       	ldi	r24, 0x01	; 1
    2b4e:	90 e0       	ldi	r25, 0x00	; 0
    2b50:	a0 e0       	ldi	r26, 0x00	; 0
    2b52:	b0 e0       	ldi	r27, 0x00	; 0
    2b54:	fa 01       	movw	r30, r20
    2b56:	80 83       	st	Z, r24
    2b58:	91 83       	std	Z+1, r25	; 0x01
    2b5a:	a2 83       	std	Z+2, r26	; 0x02
    2b5c:	b3 83       	std	Z+3, r27	; 0x03
    2b5e:	80 e0       	ldi	r24, 0x00	; 0
    2b60:	08 95       	ret
		case GET_SECTOR_COUNT: *(DWORD*)buff = 32768; return RES_OK;
    2b62:	80 e0       	ldi	r24, 0x00	; 0
    2b64:	90 e8       	ldi	r25, 0x80	; 128
    2b66:	a0 e0       	ldi	r26, 0x00	; 0
    2b68:	b0 e0       	ldi	r27, 0x00	; 0
    2b6a:	fa 01       	movw	r30, r20
    2b6c:	80 83       	st	Z, r24
    2b6e:	91 83       	std	Z+1, r25	; 0x01
    2b70:	a2 83       	std	Z+2, r26	; 0x02
    2b72:	b3 83       	std	Z+3, r27	; 0x03
    2b74:	80 e0       	ldi	r24, 0x00	; 0
    2b76:	08 95       	ret
		}
	}
	return RES_OK;
}
DRESULT disk_ioctl(BYTE pdrv, BYTE cmd, void* buff) {
	if (pdrv != DEV_MMC) return RES_PARERR;
    2b78:	84 e0       	ldi	r24, 0x04	; 4
    2b7a:	08 95       	ret
	switch (cmd) {
		case CTRL_SYNC: *(BYTE*)buff = 0; return RES_OK;
		case GET_SECTOR_SIZE: *(WORD*)buff = 512; return RES_OK;
		case GET_BLOCK_SIZE: *(DWORD*)buff = 1; return RES_OK;
		case GET_SECTOR_COUNT: *(DWORD*)buff = 32768; return RES_OK;
		default: return RES_PARERR;
    2b7c:	84 e0       	ldi	r24, 0x04	; 4
	}
}
    2b7e:	08 95       	ret

00002b80 <get_fattime>:
DWORD get_fattime(void) {
	return ((2020UL - 1980UL) << 25) | (1UL << 21) | (1UL << 16);
}
    2b80:	60 e0       	ldi	r22, 0x00	; 0
    2b82:	70 e0       	ldi	r23, 0x00	; 0
    2b84:	81 e2       	ldi	r24, 0x21	; 33
    2b86:	90 e5       	ldi	r25, 0x50	; 80
    2b88:	08 95       	ret

00002b8a <pulseWR>:
void DisplayOff(){
	WriteCommand(0x28);
}

void DisplayOn(){
	WriteCommand(0x29);
    2b8a:	84 b3       	in	r24, 0x14	; 20
    2b8c:	8b 7f       	andi	r24, 0xFB	; 251
    2b8e:	84 bb       	out	0x14, r24	; 20
    2b90:	84 b3       	in	r24, 0x14	; 20
    2b92:	84 60       	ori	r24, 0x04	; 4
    2b94:	84 bb       	out	0x14, r24	; 20
    2b96:	08 95       	ret

00002b98 <WriteCommand>:
    2b98:	88 b9       	out	0x08, r24	; 8
    2b9a:	8b b1       	in	r24, 0x0b	; 11
    2b9c:	8f 77       	andi	r24, 0x7F	; 127
    2b9e:	8b b9       	out	0x0b, r24	; 11
    2ba0:	84 b3       	in	r24, 0x14	; 20
    2ba2:	8d 7f       	andi	r24, 0xFD	; 253
    2ba4:	84 bb       	out	0x14, r24	; 20
    2ba6:	f1 df       	rcall	.-30     	; 0x2b8a <pulseWR>
    2ba8:	00 00       	nop
    2baa:	08 95       	ret

00002bac <WriteData>:
    2bac:	92 b9       	out	0x02, r25	; 2
    2bae:	88 b9       	out	0x08, r24	; 8
    2bb0:	8b b1       	in	r24, 0x0b	; 11
    2bb2:	80 68       	ori	r24, 0x80	; 128
    2bb4:	8b b9       	out	0x0b, r24	; 11
    2bb6:	84 b3       	in	r24, 0x14	; 20
    2bb8:	8d 7f       	andi	r24, 0xFD	; 253
    2bba:	84 bb       	out	0x14, r24	; 20
    2bbc:	e6 df       	rcall	.-52     	; 0x2b8a <pulseWR>
    2bbe:	00 00       	nop
    2bc0:	08 95       	ret

00002bc2 <DisplayInit>:
    2bc2:	8f ef       	ldi	r24, 0xFF	; 255
    2bc4:	81 b9       	out	0x01, r24	; 1
    2bc6:	87 b9       	out	0x07, r24	; 7
    2bc8:	83 b3       	in	r24, 0x13	; 19
    2bca:	87 60       	ori	r24, 0x07	; 7
    2bcc:	83 bb       	out	0x13, r24	; 19
    2bce:	8a b1       	in	r24, 0x0a	; 10
    2bd0:	80 68       	ori	r24, 0x80	; 128
    2bd2:	8a b9       	out	0x0a, r24	; 10
    2bd4:	84 b3       	in	r24, 0x14	; 20
    2bd6:	8e 7f       	andi	r24, 0xFE	; 254
    2bd8:	84 bb       	out	0x14, r24	; 20
    2bda:	2f ef       	ldi	r18, 0xFF	; 255
    2bdc:	80 e7       	ldi	r24, 0x70	; 112
    2bde:	92 e0       	ldi	r25, 0x02	; 2
    2be0:	21 50       	subi	r18, 0x01	; 1
    2be2:	80 40       	sbci	r24, 0x00	; 0
    2be4:	90 40       	sbci	r25, 0x00	; 0
    2be6:	e1 f7       	brne	.-8      	; 0x2be0 <DisplayInit+0x1e>
    2be8:	00 c0       	rjmp	.+0      	; 0x2bea <DisplayInit+0x28>
    2bea:	00 00       	nop
    2bec:	84 b3       	in	r24, 0x14	; 20
    2bee:	81 60       	ori	r24, 0x01	; 1
    2bf0:	84 bb       	out	0x14, r24	; 20
    2bf2:	2f ef       	ldi	r18, 0xFF	; 255
    2bf4:	8b ed       	ldi	r24, 0xDB	; 219
    2bf6:	95 e0       	ldi	r25, 0x05	; 5
    2bf8:	21 50       	subi	r18, 0x01	; 1
    2bfa:	80 40       	sbci	r24, 0x00	; 0
    2bfc:	90 40       	sbci	r25, 0x00	; 0
    2bfe:	e1 f7       	brne	.-8      	; 0x2bf8 <DisplayInit+0x36>
    2c00:	00 c0       	rjmp	.+0      	; 0x2c02 <DisplayInit+0x40>
    2c02:	00 00       	nop
    2c04:	81 e0       	ldi	r24, 0x01	; 1
    2c06:	c8 df       	rcall	.-112    	; 0x2b98 <WriteCommand>
    2c08:	8f e1       	ldi	r24, 0x1F	; 31
    2c0a:	9e e4       	ldi	r25, 0x4E	; 78
    2c0c:	01 97       	sbiw	r24, 0x01	; 1
    2c0e:	f1 f7       	brne	.-4      	; 0x2c0c <DisplayInit+0x4a>
    2c10:	00 c0       	rjmp	.+0      	; 0x2c12 <DisplayInit+0x50>
    2c12:	00 00       	nop
    2c14:	88 e2       	ldi	r24, 0x28	; 40
    2c16:	c0 df       	rcall	.-128    	; 0x2b98 <WriteCommand>
    2c18:	8f ec       	ldi	r24, 0xCF	; 207
    2c1a:	be df       	rcall	.-132    	; 0x2b98 <WriteCommand>
    2c1c:	80 e0       	ldi	r24, 0x00	; 0
    2c1e:	90 e0       	ldi	r25, 0x00	; 0
    2c20:	c5 df       	rcall	.-118    	; 0x2bac <WriteData>
    2c22:	81 ec       	ldi	r24, 0xC1	; 193
    2c24:	90 e0       	ldi	r25, 0x00	; 0
    2c26:	c2 df       	rcall	.-124    	; 0x2bac <WriteData>
    2c28:	80 e3       	ldi	r24, 0x30	; 48
    2c2a:	90 e0       	ldi	r25, 0x00	; 0
    2c2c:	bf df       	rcall	.-130    	; 0x2bac <WriteData>
    2c2e:	8d ee       	ldi	r24, 0xED	; 237
    2c30:	b3 df       	rcall	.-154    	; 0x2b98 <WriteCommand>
    2c32:	84 e6       	ldi	r24, 0x64	; 100
    2c34:	90 e0       	ldi	r25, 0x00	; 0
    2c36:	ba df       	rcall	.-140    	; 0x2bac <WriteData>
    2c38:	83 e0       	ldi	r24, 0x03	; 3
    2c3a:	90 e0       	ldi	r25, 0x00	; 0
    2c3c:	b7 df       	rcall	.-146    	; 0x2bac <WriteData>
    2c3e:	82 e1       	ldi	r24, 0x12	; 18
    2c40:	90 e0       	ldi	r25, 0x00	; 0
    2c42:	b4 df       	rcall	.-152    	; 0x2bac <WriteData>
    2c44:	81 e8       	ldi	r24, 0x81	; 129
    2c46:	90 e0       	ldi	r25, 0x00	; 0
    2c48:	b1 df       	rcall	.-158    	; 0x2bac <WriteData>
    2c4a:	88 ee       	ldi	r24, 0xE8	; 232
    2c4c:	a5 df       	rcall	.-182    	; 0x2b98 <WriteCommand>
    2c4e:	85 e8       	ldi	r24, 0x85	; 133
    2c50:	90 e0       	ldi	r25, 0x00	; 0
    2c52:	ac df       	rcall	.-168    	; 0x2bac <WriteData>
    2c54:	80 e0       	ldi	r24, 0x00	; 0
    2c56:	90 e0       	ldi	r25, 0x00	; 0
    2c58:	a9 df       	rcall	.-174    	; 0x2bac <WriteData>
    2c5a:	88 e7       	ldi	r24, 0x78	; 120
    2c5c:	90 e0       	ldi	r25, 0x00	; 0
    2c5e:	a6 df       	rcall	.-180    	; 0x2bac <WriteData>
    2c60:	8b ec       	ldi	r24, 0xCB	; 203
    2c62:	9a df       	rcall	.-204    	; 0x2b98 <WriteCommand>
    2c64:	89 e3       	ldi	r24, 0x39	; 57
    2c66:	90 e0       	ldi	r25, 0x00	; 0
    2c68:	a1 df       	rcall	.-190    	; 0x2bac <WriteData>
    2c6a:	8c e2       	ldi	r24, 0x2C	; 44
    2c6c:	90 e0       	ldi	r25, 0x00	; 0
    2c6e:	9e df       	rcall	.-196    	; 0x2bac <WriteData>
    2c70:	80 e0       	ldi	r24, 0x00	; 0
    2c72:	90 e0       	ldi	r25, 0x00	; 0
    2c74:	9b df       	rcall	.-202    	; 0x2bac <WriteData>
    2c76:	84 e3       	ldi	r24, 0x34	; 52
    2c78:	90 e0       	ldi	r25, 0x00	; 0
    2c7a:	98 df       	rcall	.-208    	; 0x2bac <WriteData>
    2c7c:	82 e0       	ldi	r24, 0x02	; 2
    2c7e:	90 e0       	ldi	r25, 0x00	; 0
    2c80:	95 df       	rcall	.-214    	; 0x2bac <WriteData>
    2c82:	87 ef       	ldi	r24, 0xF7	; 247
    2c84:	89 df       	rcall	.-238    	; 0x2b98 <WriteCommand>
    2c86:	80 e2       	ldi	r24, 0x20	; 32
    2c88:	90 e0       	ldi	r25, 0x00	; 0
    2c8a:	90 df       	rcall	.-224    	; 0x2bac <WriteData>
    2c8c:	8a ee       	ldi	r24, 0xEA	; 234
    2c8e:	84 df       	rcall	.-248    	; 0x2b98 <WriteCommand>
    2c90:	80 e0       	ldi	r24, 0x00	; 0
    2c92:	90 e0       	ldi	r25, 0x00	; 0
    2c94:	8b df       	rcall	.-234    	; 0x2bac <WriteData>
    2c96:	80 e0       	ldi	r24, 0x00	; 0
    2c98:	90 e0       	ldi	r25, 0x00	; 0
    2c9a:	88 df       	rcall	.-240    	; 0x2bac <WriteData>
    2c9c:	80 ec       	ldi	r24, 0xC0	; 192
    2c9e:	7c df       	rcall	.-264    	; 0x2b98 <WriteCommand>
    2ca0:	83 e2       	ldi	r24, 0x23	; 35
    2ca2:	90 e0       	ldi	r25, 0x00	; 0
    2ca4:	83 df       	rcall	.-250    	; 0x2bac <WriteData>
    2ca6:	81 ec       	ldi	r24, 0xC1	; 193
    2ca8:	77 df       	rcall	.-274    	; 0x2b98 <WriteCommand>
    2caa:	80 e1       	ldi	r24, 0x10	; 16
    2cac:	90 e0       	ldi	r25, 0x00	; 0
    2cae:	7e df       	rcall	.-260    	; 0x2bac <WriteData>
    2cb0:	85 ec       	ldi	r24, 0xC5	; 197
    2cb2:	72 df       	rcall	.-284    	; 0x2b98 <WriteCommand>
    2cb4:	8e e3       	ldi	r24, 0x3E	; 62
    2cb6:	90 e0       	ldi	r25, 0x00	; 0
    2cb8:	79 df       	rcall	.-270    	; 0x2bac <WriteData>
    2cba:	88 e2       	ldi	r24, 0x28	; 40
    2cbc:	90 e0       	ldi	r25, 0x00	; 0
    2cbe:	76 df       	rcall	.-276    	; 0x2bac <WriteData>
    2cc0:	87 ec       	ldi	r24, 0xC7	; 199
    2cc2:	6a df       	rcall	.-300    	; 0x2b98 <WriteCommand>
    2cc4:	86 e8       	ldi	r24, 0x86	; 134
    2cc6:	90 e0       	ldi	r25, 0x00	; 0
    2cc8:	71 df       	rcall	.-286    	; 0x2bac <WriteData>
    2cca:	86 e3       	ldi	r24, 0x36	; 54
    2ccc:	65 df       	rcall	.-310    	; 0x2b98 <WriteCommand>
    2cce:	88 e4       	ldi	r24, 0x48	; 72
    2cd0:	90 e0       	ldi	r25, 0x00	; 0
    2cd2:	6c df       	rcall	.-296    	; 0x2bac <WriteData>
    2cd4:	8a e3       	ldi	r24, 0x3A	; 58
    2cd6:	60 df       	rcall	.-320    	; 0x2b98 <WriteCommand>
    2cd8:	85 e5       	ldi	r24, 0x55	; 85
    2cda:	90 e0       	ldi	r25, 0x00	; 0
    2cdc:	67 df       	rcall	.-306    	; 0x2bac <WriteData>
    2cde:	81 eb       	ldi	r24, 0xB1	; 177
    2ce0:	5b df       	rcall	.-330    	; 0x2b98 <WriteCommand>
    2ce2:	80 e0       	ldi	r24, 0x00	; 0
    2ce4:	90 e0       	ldi	r25, 0x00	; 0
    2ce6:	62 df       	rcall	.-316    	; 0x2bac <WriteData>
    2ce8:	88 e1       	ldi	r24, 0x18	; 24
    2cea:	90 e0       	ldi	r25, 0x00	; 0
    2cec:	5f df       	rcall	.-322    	; 0x2bac <WriteData>
    2cee:	86 eb       	ldi	r24, 0xB6	; 182
    2cf0:	53 df       	rcall	.-346    	; 0x2b98 <WriteCommand>
    2cf2:	88 e0       	ldi	r24, 0x08	; 8
    2cf4:	90 e0       	ldi	r25, 0x00	; 0
    2cf6:	5a df       	rcall	.-332    	; 0x2bac <WriteData>
    2cf8:	82 e8       	ldi	r24, 0x82	; 130
    2cfa:	90 e0       	ldi	r25, 0x00	; 0
    2cfc:	57 df       	rcall	.-338    	; 0x2bac <WriteData>
    2cfe:	87 e2       	ldi	r24, 0x27	; 39
    2d00:	90 e0       	ldi	r25, 0x00	; 0
    2d02:	54 df       	rcall	.-344    	; 0x2bac <WriteData>
    2d04:	82 ef       	ldi	r24, 0xF2	; 242
    2d06:	48 df       	rcall	.-368    	; 0x2b98 <WriteCommand>
    2d08:	80 e0       	ldi	r24, 0x00	; 0
    2d0a:	90 e0       	ldi	r25, 0x00	; 0
    2d0c:	4f df       	rcall	.-354    	; 0x2bac <WriteData>
    2d0e:	86 e2       	ldi	r24, 0x26	; 38
    2d10:	43 df       	rcall	.-378    	; 0x2b98 <WriteCommand>
    2d12:	81 e0       	ldi	r24, 0x01	; 1
    2d14:	90 e0       	ldi	r25, 0x00	; 0
    2d16:	4a df       	rcall	.-364    	; 0x2bac <WriteData>
    2d18:	80 ee       	ldi	r24, 0xE0	; 224
    2d1a:	3e df       	rcall	.-388    	; 0x2b98 <WriteCommand>
    2d1c:	8f e0       	ldi	r24, 0x0F	; 15
    2d1e:	90 e0       	ldi	r25, 0x00	; 0
    2d20:	45 df       	rcall	.-374    	; 0x2bac <WriteData>
    2d22:	81 e3       	ldi	r24, 0x31	; 49
    2d24:	90 e0       	ldi	r25, 0x00	; 0
    2d26:	42 df       	rcall	.-380    	; 0x2bac <WriteData>
    2d28:	8b e2       	ldi	r24, 0x2B	; 43
    2d2a:	90 e0       	ldi	r25, 0x00	; 0
    2d2c:	3f df       	rcall	.-386    	; 0x2bac <WriteData>
    2d2e:	8c e0       	ldi	r24, 0x0C	; 12
    2d30:	90 e0       	ldi	r25, 0x00	; 0
    2d32:	3c df       	rcall	.-392    	; 0x2bac <WriteData>
    2d34:	8e e0       	ldi	r24, 0x0E	; 14
    2d36:	90 e0       	ldi	r25, 0x00	; 0
    2d38:	39 df       	rcall	.-398    	; 0x2bac <WriteData>
    2d3a:	88 e0       	ldi	r24, 0x08	; 8
    2d3c:	90 e0       	ldi	r25, 0x00	; 0
    2d3e:	36 df       	rcall	.-404    	; 0x2bac <WriteData>
    2d40:	8e e4       	ldi	r24, 0x4E	; 78
    2d42:	90 e0       	ldi	r25, 0x00	; 0
    2d44:	33 df       	rcall	.-410    	; 0x2bac <WriteData>
    2d46:	81 ef       	ldi	r24, 0xF1	; 241
    2d48:	90 e0       	ldi	r25, 0x00	; 0
    2d4a:	30 df       	rcall	.-416    	; 0x2bac <WriteData>
    2d4c:	87 e3       	ldi	r24, 0x37	; 55
    2d4e:	90 e0       	ldi	r25, 0x00	; 0
    2d50:	2d df       	rcall	.-422    	; 0x2bac <WriteData>
    2d52:	87 e0       	ldi	r24, 0x07	; 7
    2d54:	90 e0       	ldi	r25, 0x00	; 0
    2d56:	2a df       	rcall	.-428    	; 0x2bac <WriteData>
    2d58:	80 e1       	ldi	r24, 0x10	; 16
    2d5a:	90 e0       	ldi	r25, 0x00	; 0
    2d5c:	27 df       	rcall	.-434    	; 0x2bac <WriteData>
    2d5e:	83 e0       	ldi	r24, 0x03	; 3
    2d60:	90 e0       	ldi	r25, 0x00	; 0
    2d62:	24 df       	rcall	.-440    	; 0x2bac <WriteData>
    2d64:	8e e0       	ldi	r24, 0x0E	; 14
    2d66:	90 e0       	ldi	r25, 0x00	; 0
    2d68:	21 df       	rcall	.-446    	; 0x2bac <WriteData>
    2d6a:	89 e0       	ldi	r24, 0x09	; 9
    2d6c:	90 e0       	ldi	r25, 0x00	; 0
    2d6e:	1e df       	rcall	.-452    	; 0x2bac <WriteData>
    2d70:	80 e0       	ldi	r24, 0x00	; 0
    2d72:	90 e0       	ldi	r25, 0x00	; 0
    2d74:	1b df       	rcall	.-458    	; 0x2bac <WriteData>
    2d76:	81 ee       	ldi	r24, 0xE1	; 225
    2d78:	0f df       	rcall	.-482    	; 0x2b98 <WriteCommand>
    2d7a:	80 e0       	ldi	r24, 0x00	; 0
    2d7c:	90 e0       	ldi	r25, 0x00	; 0
    2d7e:	16 df       	rcall	.-468    	; 0x2bac <WriteData>
    2d80:	8e e0       	ldi	r24, 0x0E	; 14
    2d82:	90 e0       	ldi	r25, 0x00	; 0
    2d84:	13 df       	rcall	.-474    	; 0x2bac <WriteData>
    2d86:	84 e1       	ldi	r24, 0x14	; 20
    2d88:	90 e0       	ldi	r25, 0x00	; 0
    2d8a:	10 df       	rcall	.-480    	; 0x2bac <WriteData>
    2d8c:	83 e0       	ldi	r24, 0x03	; 3
    2d8e:	90 e0       	ldi	r25, 0x00	; 0
    2d90:	0d df       	rcall	.-486    	; 0x2bac <WriteData>
    2d92:	81 e1       	ldi	r24, 0x11	; 17
    2d94:	90 e0       	ldi	r25, 0x00	; 0
    2d96:	0a df       	rcall	.-492    	; 0x2bac <WriteData>
    2d98:	87 e0       	ldi	r24, 0x07	; 7
    2d9a:	90 e0       	ldi	r25, 0x00	; 0
    2d9c:	07 df       	rcall	.-498    	; 0x2bac <WriteData>
    2d9e:	81 e3       	ldi	r24, 0x31	; 49
    2da0:	90 e0       	ldi	r25, 0x00	; 0
    2da2:	04 df       	rcall	.-504    	; 0x2bac <WriteData>
    2da4:	81 ec       	ldi	r24, 0xC1	; 193
    2da6:	90 e0       	ldi	r25, 0x00	; 0
    2da8:	01 df       	rcall	.-510    	; 0x2bac <WriteData>
    2daa:	88 e4       	ldi	r24, 0x48	; 72
    2dac:	90 e0       	ldi	r25, 0x00	; 0
    2dae:	fe de       	rcall	.-516    	; 0x2bac <WriteData>
    2db0:	88 e0       	ldi	r24, 0x08	; 8
    2db2:	90 e0       	ldi	r25, 0x00	; 0
    2db4:	fb de       	rcall	.-522    	; 0x2bac <WriteData>
    2db6:	8f e0       	ldi	r24, 0x0F	; 15
    2db8:	90 e0       	ldi	r25, 0x00	; 0
    2dba:	f8 de       	rcall	.-528    	; 0x2bac <WriteData>
    2dbc:	8c e0       	ldi	r24, 0x0C	; 12
    2dbe:	90 e0       	ldi	r25, 0x00	; 0
    2dc0:	f5 de       	rcall	.-534    	; 0x2bac <WriteData>
    2dc2:	81 e3       	ldi	r24, 0x31	; 49
    2dc4:	90 e0       	ldi	r25, 0x00	; 0
    2dc6:	f2 de       	rcall	.-540    	; 0x2bac <WriteData>
    2dc8:	86 e3       	ldi	r24, 0x36	; 54
    2dca:	90 e0       	ldi	r25, 0x00	; 0
    2dcc:	ef de       	rcall	.-546    	; 0x2bac <WriteData>
    2dce:	8f e0       	ldi	r24, 0x0F	; 15
    2dd0:	90 e0       	ldi	r25, 0x00	; 0
    2dd2:	ec de       	rcall	.-552    	; 0x2bac <WriteData>
    2dd4:	81 e1       	ldi	r24, 0x11	; 17
    2dd6:	e0 de       	rcall	.-576    	; 0x2b98 <WriteCommand>
    2dd8:	9f ef       	ldi	r25, 0xFF	; 255
    2dda:	2b ed       	ldi	r18, 0xDB	; 219
    2ddc:	85 e0       	ldi	r24, 0x05	; 5
    2dde:	91 50       	subi	r25, 0x01	; 1
    2de0:	20 40       	sbci	r18, 0x00	; 0
    2de2:	80 40       	sbci	r24, 0x00	; 0
    2de4:	e1 f7       	brne	.-8      	; 0x2dde <DisplayInit+0x21c>
    2de6:	00 c0       	rjmp	.+0      	; 0x2de8 <DisplayInit+0x226>
    2de8:	00 00       	nop
    2dea:	89 e2       	ldi	r24, 0x29	; 41
    2dec:	d5 de       	rcall	.-598    	; 0x2b98 <WriteCommand>
    2dee:	8c e2       	ldi	r24, 0x2C	; 44
    2df0:	d3 ce       	rjmp	.-602    	; 0x2b98 <WriteCommand>
    2df2:	08 95       	ret

00002df4 <WritePixel>:
}

// Red 0-31, Green 0-63, Blue 0-31
void WritePixel(unsigned char Red, unsigned char Green, unsigned char Blue){
	// Convert 5-6-5 RGB to 16-bit value
	uint16_t color = (Red << 11) | (Green << 5) | Blue;
    2df4:	90 e0       	ldi	r25, 0x00	; 0
    2df6:	98 2f       	mov	r25, r24
    2df8:	88 27       	eor	r24, r24
    2dfa:	99 0f       	add	r25, r25
    2dfc:	99 0f       	add	r25, r25
    2dfe:	99 0f       	add	r25, r25
    2e00:	20 e2       	ldi	r18, 0x20	; 32
    2e02:	62 9f       	mul	r22, r18
    2e04:	b0 01       	movw	r22, r0
    2e06:	11 24       	eor	r1, r1
    2e08:	86 2b       	or	r24, r22
    2e0a:	97 2b       	or	r25, r23
	WriteData(color);
    2e0c:	84 2b       	or	r24, r20
    2e0e:	ce ce       	rjmp	.-612    	; 0x2bac <WriteData>
    2e10:	08 95       	ret

00002e12 <SetColumnAddress>:

	// 6. Turn on display
	WriteCommand(0x29);

	// 7. Ready for pixel writing
	WriteCommand(0x2C);
    2e12:	0f 93       	push	r16
	uint16_t color = (Red << 11) | (Green << 5) | Blue;
	WriteData(color);
}

// Set Column Address (0-239), Start > End
void SetColumnAddress(uint16_t Start, uint16_t End){
    2e14:	1f 93       	push	r17
    2e16:	cf 93       	push	r28
    2e18:	df 93       	push	r29
    2e1a:	8c 01       	movw	r16, r24
    2e1c:	eb 01       	movw	r28, r22
	WriteCommand(0x2A); // Column address set
    2e1e:	8a e2       	ldi	r24, 0x2A	; 42
    2e20:	bb de       	rcall	.-650    	; 0x2b98 <WriteCommand>

	WriteData((Start >> 8) & 0xFF); // Start high byte
    2e22:	81 2f       	mov	r24, r17
    2e24:	90 e0       	ldi	r25, 0x00	; 0
    2e26:	c2 de       	rcall	.-636    	; 0x2bac <WriteData>
	WriteData(Start & 0xFF);        // Start low byte
    2e28:	c8 01       	movw	r24, r16
    2e2a:	99 27       	eor	r25, r25
    2e2c:	bf de       	rcall	.-642    	; 0x2bac <WriteData>

	WriteData((End >> 8) & 0xFF);   // End high byte
    2e2e:	8d 2f       	mov	r24, r29
    2e30:	90 e0       	ldi	r25, 0x00	; 0
    2e32:	bc de       	rcall	.-648    	; 0x2bac <WriteData>
	WriteData(End & 0xFF);          // End low byte
    2e34:	ce 01       	movw	r24, r28
    2e36:	99 27       	eor	r25, r25
    2e38:	b9 de       	rcall	.-654    	; 0x2bac <WriteData>
    2e3a:	df 91       	pop	r29
}
    2e3c:	cf 91       	pop	r28
    2e3e:	1f 91       	pop	r17
    2e40:	0f 91       	pop	r16
    2e42:	08 95       	ret

00002e44 <SetPageAddress>:
    2e44:	0f 93       	push	r16

// Set Page Address (0-319), Start > End
void SetPageAddress(uint16_t Start, uint16_t End){
    2e46:	1f 93       	push	r17
    2e48:	cf 93       	push	r28
    2e4a:	df 93       	push	r29
    2e4c:	8c 01       	movw	r16, r24
    2e4e:	eb 01       	movw	r28, r22
	WriteCommand(0x2B); // Page address set
    2e50:	8b e2       	ldi	r24, 0x2B	; 43
    2e52:	a2 de       	rcall	.-700    	; 0x2b98 <WriteCommand>

	WriteData((Start >> 8) & 0xFF); // Start high byte
    2e54:	81 2f       	mov	r24, r17
    2e56:	90 e0       	ldi	r25, 0x00	; 0
    2e58:	a9 de       	rcall	.-686    	; 0x2bac <WriteData>
	WriteData(Start & 0xFF);        // Start low byte
    2e5a:	c8 01       	movw	r24, r16
    2e5c:	99 27       	eor	r25, r25
    2e5e:	a6 de       	rcall	.-692    	; 0x2bac <WriteData>

	WriteData((End >> 8) & 0xFF);   // End high byte
    2e60:	8d 2f       	mov	r24, r29
    2e62:	90 e0       	ldi	r25, 0x00	; 0
    2e64:	a3 de       	rcall	.-698    	; 0x2bac <WriteData>
	WriteData(End & 0xFF);          // End low byte
    2e66:	ce 01       	movw	r24, r28
    2e68:	99 27       	eor	r25, r25
    2e6a:	a0 de       	rcall	.-704    	; 0x2bac <WriteData>
    2e6c:	df 91       	pop	r29
}
    2e6e:	cf 91       	pop	r28
    2e70:	1f 91       	pop	r17
    2e72:	0f 91       	pop	r16
    2e74:	08 95       	ret

00002e76 <BackgroundColor>:
    2e76:	cf 92       	push	r12

void BackgroundColor(uint8_t Red, uint8_t Green, uint8_t Blue)
{
    2e78:	df 92       	push	r13
    2e7a:	ef 92       	push	r14
    2e7c:	ff 92       	push	r15
    2e7e:	cf 93       	push	r28
    2e80:	df 93       	push	r29
	uint16_t color = (Red << 11) | (Green << 5) | Blue;
    2e82:	c8 2f       	mov	r28, r24
    2e84:	d0 e0       	ldi	r29, 0x00	; 0
    2e86:	dc 2f       	mov	r29, r28
    2e88:	cc 27       	eor	r28, r28
    2e8a:	dd 0f       	add	r29, r29
    2e8c:	dd 0f       	add	r29, r29
    2e8e:	dd 0f       	add	r29, r29
    2e90:	20 e2       	ldi	r18, 0x20	; 32
    2e92:	62 9f       	mul	r22, r18
    2e94:	c0 01       	movw	r24, r0
    2e96:	11 24       	eor	r1, r1
    2e98:	c8 2b       	or	r28, r24
    2e9a:	d9 2b       	or	r29, r25
    2e9c:	c4 2b       	or	r28, r20

	SetColumnAddress(0, 239);
    2e9e:	6f ee       	ldi	r22, 0xEF	; 239
    2ea0:	70 e0       	ldi	r23, 0x00	; 0
    2ea2:	80 e0       	ldi	r24, 0x00	; 0
    2ea4:	90 e0       	ldi	r25, 0x00	; 0
    2ea6:	b5 df       	rcall	.-150    	; 0x2e12 <SetColumnAddress>
	SetPageAddress(0, 319);
    2ea8:	6f e3       	ldi	r22, 0x3F	; 63
    2eaa:	71 e0       	ldi	r23, 0x01	; 1
    2eac:	80 e0       	ldi	r24, 0x00	; 0
    2eae:	90 e0       	ldi	r25, 0x00	; 0
    2eb0:	c9 df       	rcall	.-110    	; 0x2e44 <SetPageAddress>
	WriteCommand(0x2C);  // Memory Write
    2eb2:	8c e2       	ldi	r24, 0x2C	; 44
    2eb4:	71 de       	rcall	.-798    	; 0x2b98 <WriteCommand>
    2eb6:	c1 2c       	mov	r12, r1

	for (uint32_t i = 0; i < 240UL * 320UL; i++)
    2eb8:	d1 2c       	mov	r13, r1
    2eba:	76 01       	movw	r14, r12
    2ebc:	07 c0       	rjmp	.+14     	; 0x2ecc <BackgroundColor+0x56>
	{
		WriteData(color);
    2ebe:	ce 01       	movw	r24, r28
    2ec0:	75 de       	rcall	.-790    	; 0x2bac <WriteData>
    2ec2:	8f ef       	ldi	r24, 0xFF	; 255

	SetColumnAddress(0, 239);
	SetPageAddress(0, 319);
	WriteCommand(0x2C);  // Memory Write

	for (uint32_t i = 0; i < 240UL * 320UL; i++)
    2ec4:	c8 1a       	sub	r12, r24
    2ec6:	d8 0a       	sbc	r13, r24
    2ec8:	e8 0a       	sbc	r14, r24
    2eca:	f8 0a       	sbc	r15, r24
    2ecc:	c1 14       	cp	r12, r1
    2ece:	2c e2       	ldi	r18, 0x2C	; 44
    2ed0:	d2 06       	cpc	r13, r18
    2ed2:	21 e0       	ldi	r18, 0x01	; 1
    2ed4:	e2 06       	cpc	r14, r18
    2ed6:	f1 04       	cpc	r15, r1
    2ed8:	90 f3       	brcs	.-28     	; 0x2ebe <BackgroundColor+0x48>
    2eda:	df 91       	pop	r29
	{
		WriteData(color);
	}
}
    2edc:	cf 91       	pop	r28
    2ede:	ff 90       	pop	r15
    2ee0:	ef 90       	pop	r14
    2ee2:	df 90       	pop	r13
    2ee4:	cf 90       	pop	r12
    2ee6:	08 95       	ret

00002ee8 <DrawVerticalLine>:
    2ee8:	cf 92       	push	r12

void DrawVerticalLine(uint16_t x, uint16_t y_start, uint16_t y_end, uint8_t Red, uint8_t Green, uint8_t Blue)
{
    2eea:	df 92       	push	r13
    2eec:	ef 92       	push	r14
    2eee:	0f 93       	push	r16
    2ef0:	1f 93       	push	r17
    2ef2:	cf 93       	push	r28
    2ef4:	df 93       	push	r29
    2ef6:	eb 01       	movw	r28, r22
    2ef8:	6a 01       	movw	r12, r20
    2efa:	12 2f       	mov	r17, r18
	SetColumnAddress(x, x);
    2efc:	bc 01       	movw	r22, r24
    2efe:	89 df       	rcall	.-238    	; 0x2e12 <SetColumnAddress>
	SetPageAddress(y_start, y_end);
    2f00:	b6 01       	movw	r22, r12
    2f02:	ce 01       	movw	r24, r28
    2f04:	9f df       	rcall	.-194    	; 0x2e44 <SetPageAddress>
	WriteCommand(0x2C);  // Memory Write
    2f06:	8c e2       	ldi	r24, 0x2C	; 44
    2f08:	47 de       	rcall	.-882    	; 0x2b98 <WriteCommand>
    2f0a:	05 c0       	rjmp	.+10     	; 0x2f16 <DrawVerticalLine+0x2e>

	for (uint16_t y = y_start; y <= y_end; y++)
    2f0c:	4e 2d       	mov	r20, r14
	{
		WritePixel(Red, Green, Blue);
    2f0e:	60 2f       	mov	r22, r16
    2f10:	81 2f       	mov	r24, r17
    2f12:	70 df       	rcall	.-288    	; 0x2df4 <WritePixel>
    2f14:	21 96       	adiw	r28, 0x01	; 1
{
	SetColumnAddress(x, x);
	SetPageAddress(y_start, y_end);
	WriteCommand(0x2C);  // Memory Write

	for (uint16_t y = y_start; y <= y_end; y++)
    2f16:	cc 16       	cp	r12, r28
    2f18:	dd 06       	cpc	r13, r29
    2f1a:	c0 f7       	brcc	.-16     	; 0x2f0c <DrawVerticalLine+0x24>
    2f1c:	df 91       	pop	r29
	{
		WritePixel(Red, Green, Blue);
	}
}
    2f1e:	cf 91       	pop	r28
    2f20:	1f 91       	pop	r17
    2f22:	0f 91       	pop	r16
    2f24:	ef 90       	pop	r14
    2f26:	df 90       	pop	r13
    2f28:	cf 90       	pop	r12
    2f2a:	08 95       	ret

00002f2c <DrawHorizontalLine>:
    2f2c:	af 92       	push	r10

void DrawHorizontalLine(uint16_t y, uint16_t x_start, uint16_t x_end, uint8_t Red, uint8_t Green, uint8_t Blue)
{
    2f2e:	bf 92       	push	r11
    2f30:	cf 92       	push	r12
    2f32:	df 92       	push	r13
    2f34:	ef 92       	push	r14
    2f36:	0f 93       	push	r16
    2f38:	1f 93       	push	r17
    2f3a:	cf 93       	push	r28
    2f3c:	df 93       	push	r29
    2f3e:	5c 01       	movw	r10, r24
    2f40:	eb 01       	movw	r28, r22
    2f42:	6a 01       	movw	r12, r20
    2f44:	12 2f       	mov	r17, r18
	SetColumnAddress(x_start, x_end);
    2f46:	ba 01       	movw	r22, r20
    2f48:	ce 01       	movw	r24, r28
    2f4a:	63 df       	rcall	.-314    	; 0x2e12 <SetColumnAddress>
	SetPageAddress(y, y);
    2f4c:	b5 01       	movw	r22, r10
    2f4e:	c5 01       	movw	r24, r10
    2f50:	79 df       	rcall	.-270    	; 0x2e44 <SetPageAddress>
	WriteCommand(0x2C);  // Memory Write
    2f52:	8c e2       	ldi	r24, 0x2C	; 44
    2f54:	21 de       	rcall	.-958    	; 0x2b98 <WriteCommand>
    2f56:	05 c0       	rjmp	.+10     	; 0x2f62 <DrawHorizontalLine+0x36>

	for (uint16_t x = x_start; x <= x_end; x++)
    2f58:	4e 2d       	mov	r20, r14
	{
		WritePixel(Red, Green, Blue);
    2f5a:	60 2f       	mov	r22, r16
    2f5c:	81 2f       	mov	r24, r17
    2f5e:	4a df       	rcall	.-364    	; 0x2df4 <WritePixel>
    2f60:	21 96       	adiw	r28, 0x01	; 1
{
	SetColumnAddress(x_start, x_end);
	SetPageAddress(y, y);
	WriteCommand(0x2C);  // Memory Write

	for (uint16_t x = x_start; x <= x_end; x++)
    2f62:	cc 16       	cp	r12, r28
    2f64:	dd 06       	cpc	r13, r29
    2f66:	c0 f7       	brcc	.-16     	; 0x2f58 <DrawHorizontalLine+0x2c>
    2f68:	df 91       	pop	r29
	{
		WritePixel(Red, Green, Blue);
	}
}
    2f6a:	cf 91       	pop	r28
    2f6c:	1f 91       	pop	r17
    2f6e:	0f 91       	pop	r16
    2f70:	ef 90       	pop	r14
    2f72:	df 90       	pop	r13
    2f74:	cf 90       	pop	r12
    2f76:	bf 90       	pop	r11
    2f78:	af 90       	pop	r10
    2f7a:	08 95       	ret

00002f7c <InitCoordinate>:
    2f7c:	ef 92       	push	r14

void InitCoordinate() {
    2f7e:	0f 93       	push	r16
	// 1. Fill screen with white (RGB = 255, 255, 255)
	BackgroundColor(31, 63, 31);  // Max R, G, B for RGB565 white
    2f80:	4f e1       	ldi	r20, 0x1F	; 31
    2f82:	6f e3       	ldi	r22, 0x3F	; 63
    2f84:	8f e1       	ldi	r24, 0x1F	; 31
    2f86:	77 df       	rcall	.-274    	; 0x2e76 <BackgroundColor>

	// 2. Draw vertical black line (R=0, G=0, B=0)
	DrawVerticalLine(120, 0, 319, 0, 0, 0);  // Center X
    2f88:	e1 2c       	mov	r14, r1
    2f8a:	00 e0       	ldi	r16, 0x00	; 0
    2f8c:	20 e0       	ldi	r18, 0x00	; 0
    2f8e:	4f e3       	ldi	r20, 0x3F	; 63
    2f90:	51 e0       	ldi	r21, 0x01	; 1
    2f92:	60 e0       	ldi	r22, 0x00	; 0
    2f94:	70 e0       	ldi	r23, 0x00	; 0
    2f96:	88 e7       	ldi	r24, 0x78	; 120
    2f98:	90 e0       	ldi	r25, 0x00	; 0
    2f9a:	a6 df       	rcall	.-180    	; 0x2ee8 <DrawVerticalLine>

	// 3. Draw horizontal black line
	DrawHorizontalLine(260, 0, 239, 0, 0, 0);  // Center Y
    2f9c:	20 e0       	ldi	r18, 0x00	; 0
    2f9e:	4f ee       	ldi	r20, 0xEF	; 239
    2fa0:	50 e0       	ldi	r21, 0x00	; 0
    2fa2:	60 e0       	ldi	r22, 0x00	; 0
    2fa4:	70 e0       	ldi	r23, 0x00	; 0
    2fa6:	84 e0       	ldi	r24, 0x04	; 4
    2fa8:	91 e0       	ldi	r25, 0x01	; 1
    2faa:	c0 df       	rcall	.-128    	; 0x2f2c <DrawHorizontalLine>
}
    2fac:	0f 91       	pop	r16
    2fae:	ef 90       	pop	r14
    2fb0:	08 95       	ret

00002fb2 <DrawEMG>:

void DrawEMG(uint8_t sample, uint16_t x)
{
    2fb2:	cf 93       	push	r28
    2fb4:	df 93       	push	r29
    2fb6:	eb 01       	movw	r28, r22
	uint16_t y = 239 - ((sample * 240UL) / 256);
    2fb8:	28 2f       	mov	r18, r24
    2fba:	30 e0       	ldi	r19, 0x00	; 0
    2fbc:	a0 ef       	ldi	r26, 0xF0	; 240
    2fbe:	b0 e0       	ldi	r27, 0x00	; 0
    2fc0:	ac d5       	rcall	.+2904   	; 0x3b1a <__umulhisi3>
    2fc2:	47 2f       	mov	r20, r23
    2fc4:	58 2f       	mov	r21, r24
    2fc6:	69 2f       	mov	r22, r25
    2fc8:	77 27       	eor	r23, r23
    2fca:	8f ee       	ldi	r24, 0xEF	; 239
    2fcc:	90 e0       	ldi	r25, 0x00	; 0
    2fce:	84 1b       	sub	r24, r20
    2fd0:	95 0b       	sbc	r25, r21

	if (x > 318) x = 318;
    2fd2:	cf 33       	cpi	r28, 0x3F	; 63
    2fd4:	21 e0       	ldi	r18, 0x01	; 1
    2fd6:	d2 07       	cpc	r29, r18
    2fd8:	10 f0       	brcs	.+4      	; 0x2fde <DrawEMG+0x2c>
    2fda:	ce e3       	ldi	r28, 0x3E	; 62
    2fdc:	d1 e0       	ldi	r29, 0x01	; 1
	if (y > 238) y = 238;
    2fde:	8f 3e       	cpi	r24, 0xEF	; 239
    2fe0:	91 05       	cpc	r25, r1
    2fe2:	10 f0       	brcs	.+4      	; 0x2fe8 <DrawEMG+0x36>
    2fe4:	8e ee       	ldi	r24, 0xEE	; 238
    2fe6:	90 e0       	ldi	r25, 0x00	; 0

	SetColumnAddress(y, y + 2);
    2fe8:	bc 01       	movw	r22, r24
    2fea:	6e 5f       	subi	r22, 0xFE	; 254
    2fec:	7f 4f       	sbci	r23, 0xFF	; 255
    2fee:	11 df       	rcall	.-478    	; 0x2e12 <SetColumnAddress>
	SetPageAddress(x, x + 2);
    2ff0:	be 01       	movw	r22, r28
    2ff2:	6e 5f       	subi	r22, 0xFE	; 254
    2ff4:	7f 4f       	sbci	r23, 0xFF	; 255
    2ff6:	ce 01       	movw	r24, r28
	WriteCommand(0x2C);  // Memory Write
    2ff8:	25 df       	rcall	.-438    	; 0x2e44 <SetPageAddress>
    2ffa:	8c e2       	ldi	r24, 0x2C	; 44
    2ffc:	cd dd       	rcall	.-1126   	; 0x2b98 <WriteCommand>

	for (uint8_t i = 0; i < 9; i++)  // 3x3 = 9 pixels
    2ffe:	c0 e0       	ldi	r28, 0x00	; 0
	{
		WritePixel(31, 0, 0);  // RGB565 red
    3000:	05 c0       	rjmp	.+10     	; 0x300c <DrawEMG+0x5a>
    3002:	40 e0       	ldi	r20, 0x00	; 0
    3004:	60 e0       	ldi	r22, 0x00	; 0
    3006:	8f e1       	ldi	r24, 0x1F	; 31
    3008:	f5 de       	rcall	.-534    	; 0x2df4 <WritePixel>

	SetColumnAddress(y, y + 2);
	SetPageAddress(x, x + 2);
	WriteCommand(0x2C);  // Memory Write

	for (uint8_t i = 0; i < 9; i++)  // 3x3 = 9 pixels
    300a:	cf 5f       	subi	r28, 0xFF	; 255
    300c:	c9 30       	cpi	r28, 0x09	; 9
    300e:	c8 f3       	brcs	.-14     	; 0x3002 <DrawEMG+0x50>
	{
		WritePixel(31, 0, 0);  // RGB565 red
	}
}
    3010:	df 91       	pop	r29
    3012:	cf 91       	pop	r28
    3014:	08 95       	ret

00003016 <DrawSquare>:


void DrawSquare(uint16_t x_start, uint16_t y_start, uint16_t size, uint8_t Red, uint8_t Green, uint8_t Blue)
{
    3016:	6f 92       	push	r6
    3018:	7f 92       	push	r7
    301a:	8f 92       	push	r8
    301c:	9f 92       	push	r9
    301e:	af 92       	push	r10
    3020:	bf 92       	push	r11
    3022:	cf 92       	push	r12
    3024:	df 92       	push	r13
    3026:	ef 92       	push	r14
    3028:	0f 93       	push	r16
    302a:	1f 93       	push	r17
    302c:	cf 93       	push	r28
    302e:	df 93       	push	r29
    3030:	4c 01       	movw	r8, r24
    3032:	5b 01       	movw	r10, r22
    3034:	12 2f       	mov	r17, r18
	uint16_t x_end = x_start + size - 1;
    3036:	6c 01       	movw	r12, r24
    3038:	c4 0e       	add	r12, r20
    303a:	d5 1e       	adc	r13, r21
    303c:	81 e0       	ldi	r24, 0x01	; 1
    303e:	c8 1a       	sub	r12, r24
    3040:	d1 08       	sbc	r13, r1
	uint16_t y_end = y_start + size - 1;
    3042:	46 0f       	add	r20, r22
    3044:	57 1f       	adc	r21, r23
    3046:	3a 01       	movw	r6, r20
    3048:	81 e0       	ldi	r24, 0x01	; 1
    304a:	68 1a       	sub	r6, r24
    304c:	71 08       	sbc	r7, r1

	SetColumnAddress(x_start, x_end);
    304e:	b6 01       	movw	r22, r12
    3050:	c4 01       	movw	r24, r8
    3052:	df de       	rcall	.-578    	; 0x2e12 <SetColumnAddress>
	SetPageAddress(y_start, y_end);
    3054:	b3 01       	movw	r22, r6
    3056:	c5 01       	movw	r24, r10
    3058:	f5 de       	rcall	.-534    	; 0x2e44 <SetPageAddress>
	WriteCommand(0x2C);  // Memory Write
    305a:	8c e2       	ldi	r24, 0x2C	; 44
    305c:	9d dd       	rcall	.-1222   	; 0x2b98 <WriteCommand>
    305e:	0d c0       	rjmp	.+26     	; 0x307a <DrawSquare+0x64>

	for (uint16_t y = y_start; y <= y_end; y++)
    3060:	4e 2d       	mov	r20, r14
	{
		for (uint16_t x = x_start; x <= x_end; x++)
		{
			WritePixel(Red, Green, Blue);
    3062:	60 2f       	mov	r22, r16
    3064:	81 2f       	mov	r24, r17
    3066:	c6 de       	rcall	.-628    	; 0x2df4 <WritePixel>
    3068:	21 96       	adiw	r28, 0x01	; 1
	SetPageAddress(y_start, y_end);
	WriteCommand(0x2C);  // Memory Write

	for (uint16_t y = y_start; y <= y_end; y++)
	{
		for (uint16_t x = x_start; x <= x_end; x++)
    306a:	01 c0       	rjmp	.+2      	; 0x306e <DrawSquare+0x58>
    306c:	e4 01       	movw	r28, r8
    306e:	cc 16       	cp	r12, r28
    3070:	dd 06       	cpc	r13, r29
    3072:	b0 f7       	brcc	.-20     	; 0x3060 <DrawSquare+0x4a>
    3074:	8f ef       	ldi	r24, 0xFF	; 255

	SetColumnAddress(x_start, x_end);
	SetPageAddress(y_start, y_end);
	WriteCommand(0x2C);  // Memory Write

	for (uint16_t y = y_start; y <= y_end; y++)
    3076:	a8 1a       	sub	r10, r24
    3078:	b8 0a       	sbc	r11, r24
    307a:	6a 14       	cp	r6, r10
    307c:	7b 04       	cpc	r7, r11
    307e:	b0 f7       	brcc	.-20     	; 0x306c <DrawSquare+0x56>
    3080:	df 91       	pop	r29
		for (uint16_t x = x_start; x <= x_end; x++)
		{
			WritePixel(Red, Green, Blue);
		}
	}
}
    3082:	cf 91       	pop	r28
    3084:	1f 91       	pop	r17
    3086:	0f 91       	pop	r16
    3088:	ef 90       	pop	r14
    308a:	df 90       	pop	r13
    308c:	cf 90       	pop	r12
    308e:	bf 90       	pop	r11
    3090:	af 90       	pop	r10
    3092:	9f 90       	pop	r9
    3094:	8f 90       	pop	r8
    3096:	7f 90       	pop	r7
    3098:	6f 90       	pop	r6
    309a:	08 95       	ret

0000309c <spi_write>:
    309c:	27 e0       	ldi	r18, 0x07	; 7
	uart_print(buf);						// Send buffer over UART
}

// ========== SPI Bit-Bang Functions ==========
void spi_write(uint8_t data) {
	for (int i = 7; i >= 0; i--) {
    309e:	30 e0       	ldi	r19, 0x00	; 0
    30a0:	23 c0       	rjmp	.+70     	; 0x30e8 <spi_write+0x4c>
		if (data & (1 << i)) SET(D_IN_PORT, D_IN_PIN);
    30a2:	48 2f       	mov	r20, r24
    30a4:	50 e0       	ldi	r21, 0x00	; 0
    30a6:	02 2e       	mov	r0, r18
    30a8:	02 c0       	rjmp	.+4      	; 0x30ae <spi_write+0x12>
    30aa:	55 95       	asr	r21
    30ac:	47 95       	ror	r20
    30ae:	0a 94       	dec	r0
    30b0:	e2 f7       	brpl	.-8      	; 0x30aa <spi_write+0xe>
    30b2:	40 ff       	sbrs	r20, 0
    30b4:	04 c0       	rjmp	.+8      	; 0x30be <spi_write+0x22>
    30b6:	94 b3       	in	r25, 0x14	; 20
    30b8:	90 62       	ori	r25, 0x20	; 32
    30ba:	94 bb       	out	0x14, r25	; 20
    30bc:	03 c0       	rjmp	.+6      	; 0x30c4 <spi_write+0x28>
		else CLR(D_IN_PORT, D_IN_PIN);
    30be:	94 b3       	in	r25, 0x14	; 20
    30c0:	9f 7d       	andi	r25, 0xDF	; 223
    30c2:	94 bb       	out	0x14, r25	; 20

		SET(D_CLK_PORT, D_CLK_PIN);
    30c4:	e2 e0       	ldi	r30, 0x02	; 2
    30c6:	f1 e0       	ldi	r31, 0x01	; 1
    30c8:	90 81       	ld	r25, Z
    30ca:	98 60       	ori	r25, 0x08	; 8
    30cc:	90 83       	st	Z, r25
	#else
		//round up by default
		__ticks_dc = (uint32_t)(ceil(fabs(__tmp)));
	#endif

	__builtin_avr_delay_cycles(__ticks_dc);
    30ce:	95 e0       	ldi	r25, 0x05	; 5
    30d0:	9a 95       	dec	r25
    30d2:	f1 f7       	brne	.-4      	; 0x30d0 <spi_write+0x34>
    30d4:	00 00       	nop
		_delay_us(1);
		CLR(D_CLK_PORT, D_CLK_PIN);
    30d6:	90 81       	ld	r25, Z
    30d8:	97 7f       	andi	r25, 0xF7	; 247
    30da:	90 83       	st	Z, r25
    30dc:	95 e0       	ldi	r25, 0x05	; 5
    30de:	9a 95       	dec	r25
    30e0:	f1 f7       	brne	.-4      	; 0x30de <spi_write+0x42>
    30e2:	00 00       	nop
	uart_print(buf);						// Send buffer over UART
}

// ========== SPI Bit-Bang Functions ==========
void spi_write(uint8_t data) {
	for (int i = 7; i >= 0; i--) {
    30e4:	21 50       	subi	r18, 0x01	; 1
    30e6:	31 09       	sbc	r19, r1
    30e8:	33 23       	and	r19, r19
    30ea:	dc f6       	brge	.-74     	; 0x30a2 <spi_write+0x6>
		SET(D_CLK_PORT, D_CLK_PIN);
		_delay_us(1);
		CLR(D_CLK_PORT, D_CLK_PIN);
		_delay_us(1);
	}
}
    30ec:	08 95       	ret

000030ee <spi_read12>:

uint16_t spi_read12() {
	uint16_t result = 0;
	for (int i = 0; i < 12; i++) {
    30ee:	20 e0       	ldi	r18, 0x00	; 0
    30f0:	30 e0       	ldi	r19, 0x00	; 0
		_delay_us(1);
	}
}

uint16_t spi_read12() {
	uint16_t result = 0;
    30f2:	40 e0       	ldi	r20, 0x00	; 0
    30f4:	50 e0       	ldi	r21, 0x00	; 0
	for (int i = 0; i < 12; i++) {
    30f6:	18 c0       	rjmp	.+48     	; 0x3128 <spi_read12+0x3a>
		result <<= 1;
    30f8:	44 0f       	add	r20, r20
    30fa:	55 1f       	adc	r21, r21
		SET(D_CLK_PORT, D_CLK_PIN);
    30fc:	e2 e0       	ldi	r30, 0x02	; 2
    30fe:	f1 e0       	ldi	r31, 0x01	; 1
    3100:	90 81       	ld	r25, Z
    3102:	98 60       	ori	r25, 0x08	; 8
    3104:	90 83       	st	Z, r25
    3106:	85 e0       	ldi	r24, 0x05	; 5
    3108:	8a 95       	dec	r24
    310a:	f1 f7       	brne	.-4      	; 0x3108 <spi_read12+0x1a>
    310c:	00 00       	nop
		_delay_us(1);
		if (READ(D_OUT_PINR, D_OUT_PIN)) result |= 1;
    310e:	65 99       	sbic	0x0c, 5	; 12
    3110:	41 60       	ori	r20, 0x01	; 1
		CLR(D_CLK_PORT, D_CLK_PIN);
    3112:	e2 e0       	ldi	r30, 0x02	; 2
    3114:	f1 e0       	ldi	r31, 0x01	; 1
    3116:	90 81       	ld	r25, Z
    3118:	97 7f       	andi	r25, 0xF7	; 247
    311a:	90 83       	st	Z, r25
    311c:	85 e0       	ldi	r24, 0x05	; 5
    311e:	8a 95       	dec	r24
    3120:	f1 f7       	brne	.-4      	; 0x311e <spi_read12+0x30>
    3122:	00 00       	nop
	}
}

uint16_t spi_read12() {
	uint16_t result = 0;
	for (int i = 0; i < 12; i++) {
    3124:	2f 5f       	subi	r18, 0xFF	; 255
    3126:	3f 4f       	sbci	r19, 0xFF	; 255
    3128:	2c 30       	cpi	r18, 0x0C	; 12
    312a:	31 05       	cpc	r19, r1
    312c:	2c f3       	brlt	.-54     	; 0x30f8 <spi_read12+0xa>
		if (READ(D_OUT_PINR, D_OUT_PIN)) result |= 1;
		CLR(D_CLK_PORT, D_CLK_PIN);
		_delay_us(1);
	}
	return result;
}
    312e:	ca 01       	movw	r24, r20
    3130:	08 95       	ret

00003132 <init_pins>:

void init_pins() {
	// Outputs
	SET(D_CS_PORT, D_CS_PIN);		// Set CS = LOW (do this before setting as output!)
    3132:	8e b1       	in	r24, 0x0e	; 14
    3134:	88 60       	ori	r24, 0x08	; 8
    3136:	8e b9       	out	0x0e, r24	; 14
	D_CS_DDR |= (1 << D_CS_PIN);	// CS
    3138:	8d b1       	in	r24, 0x0d	; 13
    313a:	88 60       	ori	r24, 0x08	; 8
    313c:	8d b9       	out	0x0d, r24	; 13
	D_CLK_DDR |= (1 << D_CLK_PIN);	// CLK
    313e:	e1 e0       	ldi	r30, 0x01	; 1
    3140:	f1 e0       	ldi	r31, 0x01	; 1
    3142:	80 81       	ld	r24, Z
    3144:	88 60       	ori	r24, 0x08	; 8
    3146:	80 83       	st	Z, r24
	D_IN_DDR  |= (1 << D_IN_PIN);	// MOSI
    3148:	83 b3       	in	r24, 0x13	; 19
    314a:	80 62       	ori	r24, 0x20	; 32
    314c:	83 bb       	out	0x13, r24	; 19

	// Inputs
	DDRE &= ~(1 << D_OUT_PIN);		// MISO
    314e:	8d b1       	in	r24, 0x0d	; 13
    3150:	8f 7d       	andi	r24, 0xDF	; 223
    3152:	8d b9       	out	0x0d, r24	; 13
	DDRE &= ~(1 << D_IRQ_PIN);		// IRQ
    3154:	8d b1       	in	r24, 0x0d	; 13
    3156:	8f 7e       	andi	r24, 0xEF	; 239
    3158:	8d b9       	out	0x0d, r24	; 13
	PORTE |=  (1 << D_IRQ_PIN);	    // pull-up on IRQ (active low, ISR trigger on falling edge)
    315a:	8e b1       	in	r24, 0x0e	; 14
    315c:	80 61       	ori	r24, 0x10	; 16
    315e:	8e b9       	out	0x0e, r24	; 14
    3160:	08 95       	ret

00003162 <InitTouchInterrupt>:
// ========== Interrupt Setup ==========
// External interrupt on pin PE4 = IRQ pin
void InitTouchInterrupt() {
	
	// Trigger interrupt on PE4 falling edge
	EICRB |=  (1 << ISC41);
    3162:	ea e6       	ldi	r30, 0x6A	; 106
    3164:	f0 e0       	ldi	r31, 0x00	; 0
    3166:	80 81       	ld	r24, Z
    3168:	82 60       	ori	r24, 0x02	; 2
    316a:	80 83       	st	Z, r24
	EICRB &= ~(1 << ISC40);
    316c:	80 81       	ld	r24, Z
    316e:	8e 7f       	andi	r24, 0xFE	; 254
    3170:	80 83       	st	Z, r24
	
	
	EIFR  |=  (1 << INTF4);   // clear any pending flag
    3172:	8c b3       	in	r24, 0x1c	; 28
    3174:	80 61       	ori	r24, 0x10	; 16
    3176:	8c bb       	out	0x1c, r24	; 28
	EIMSK |=  (1 << INT4);    // enable INT4
    3178:	8d b3       	in	r24, 0x1d	; 29
    317a:	80 61       	ori	r24, 0x10	; 16
    317c:	8d bb       	out	0x1d, r24	; 29
    317e:	08 95       	ret

00003180 <__vector_5>:
}

ISR(INT4_vect) {
    3180:	1f 92       	push	r1
    3182:	0f 92       	push	r0
    3184:	0f b6       	in	r0, 0x3f	; 63
    3186:	0f 92       	push	r0
    3188:	11 24       	eor	r1, r1
    318a:	8f 93       	push	r24
	touch_triggered = 1; // Flag for when touch triggered
    318c:	81 e0       	ldi	r24, 0x01	; 1
    318e:	80 93 3e 02 	sts	0x023E, r24	; 0x80023e <touch_triggered>
}
    3192:	8f 91       	pop	r24
    3194:	0f 90       	pop	r0
    3196:	0f be       	out	0x3f, r0	; 63
    3198:	0f 90       	pop	r0
    319a:	1f 90       	pop	r1
    319c:	18 95       	reti

0000319e <GetRawCoordinates>:


// ============= Get Raw Coordinates ===============
void GetRawCoordinates(uint16_t* x_raw, uint16_t* y_raw) {
    319e:	0f 93       	push	r16
    31a0:	1f 93       	push	r17
    31a2:	cf 93       	push	r28
    31a4:	df 93       	push	r29
    31a6:	8c 01       	movw	r16, r24
    31a8:	eb 01       	movw	r28, r22
	
	CLR(D_CS_PORT, D_CS_PIN);	// Pull CS LOW
    31aa:	8e b1       	in	r24, 0x0e	; 14
    31ac:	87 7f       	andi	r24, 0xF7	; 247
    31ae:	8e b9       	out	0x0e, r24	; 14
	//while (READ(D_IRQ_PINR, D_IRQ_PIN));  // Wait for press (IRQ active LOW)

	spi_write(0x90);			// Ask for X-coordinate
    31b0:	80 e9       	ldi	r24, 0x90	; 144
    31b2:	74 df       	rcall	.-280    	; 0x309c <spi_write>
	*x_raw = spi_read12();		// Store X-coordinate in pointer
    31b4:	9c df       	rcall	.-200    	; 0x30ee <spi_read12>
    31b6:	f8 01       	movw	r30, r16
    31b8:	91 83       	std	Z+1, r25	; 0x01
    31ba:	80 83       	st	Z, r24
	spi_write(0xD0);			// Ask for Y-coordinate
    31bc:	80 ed       	ldi	r24, 0xD0	; 208
    31be:	6e df       	rcall	.-292    	; 0x309c <spi_write>
	*y_raw = spi_read12();		// Store Y-coordinate in pointer
    31c0:	96 df       	rcall	.-212    	; 0x30ee <spi_read12>
    31c2:	99 83       	std	Y+1, r25	; 0x01
    31c4:	88 83       	st	Y, r24
    31c6:	8e b1       	in	r24, 0x0e	; 14
	SET(D_CS_PORT, D_CS_PIN);	// Pull CS HIGH (deselect chip)
    31c8:	88 60       	ori	r24, 0x08	; 8
    31ca:	8e b9       	out	0x0e, r24	; 14
    31cc:	64 9b       	sbis	0x0c, 4	; 12
	
	while (!READ(D_IRQ_PINR, D_IRQ_PIN));  // Wait for release
    31ce:	fe cf       	rjmp	.-4      	; 0x31cc <GetRawCoordinates+0x2e>
    31d0:	df 91       	pop	r29
}
    31d2:	cf 91       	pop	r28
    31d4:	1f 91       	pop	r17
    31d6:	0f 91       	pop	r16
    31d8:	08 95       	ret

000031da <CalibrateTouchScreen>:
    31da:	ef 92       	push	r14


// ============= Calibrate Touchscreen =============
void CalibrateTouchScreen() {
    31dc:	0f 93       	push	r16
    31de:	cf 93       	push	r28
    31e0:	df 93       	push	r29
    31e2:	00 d0       	rcall	.+0      	; 0x31e4 <CalibrateTouchScreen+0xa>
    31e4:	1f 92       	push	r1
    31e6:	cd b7       	in	r28, 0x3d	; 61
    31e8:	de b7       	in	r29, 0x3e	; 62
	// Fill background with white
	BackgroundColor(31, 62, 31);
    31ea:	4f e1       	ldi	r20, 0x1F	; 31
    31ec:	6e e3       	ldi	r22, 0x3E	; 62
    31ee:	8f e1       	ldi	r24, 0x1F	; 31
    31f0:	42 de       	rcall	.-892    	; 0x2e76 <BackgroundColor>
	
	// Show square in upper leftmost corner
	DrawSquare(0, 300, 20, 0, 0, 31);
    31f2:	0f 2e       	mov	r0, r31
    31f4:	ff e1       	ldi	r31, 0x1F	; 31
    31f6:	ef 2e       	mov	r14, r31
    31f8:	f0 2d       	mov	r31, r0
    31fa:	00 e0       	ldi	r16, 0x00	; 0
    31fc:	20 e0       	ldi	r18, 0x00	; 0
    31fe:	44 e1       	ldi	r20, 0x14	; 20
    3200:	50 e0       	ldi	r21, 0x00	; 0
    3202:	6c e2       	ldi	r22, 0x2C	; 44
    3204:	71 e0       	ldi	r23, 0x01	; 1
    3206:	80 e0       	ldi	r24, 0x00	; 0
    3208:	90 e0       	ldi	r25, 0x00	; 0
    320a:	05 df       	rcall	.-502    	; 0x3016 <DrawSquare>

	uint16_t x, y;

	// Wait for first touch (upper left)
	while (!touch_triggered);
    320c:	80 91 3e 02 	lds	r24, 0x023E	; 0x80023e <touch_triggered>
    3210:	88 23       	and	r24, r24
    3212:	e1 f3       	breq	.-8      	; 0x320c <CalibrateTouchScreen+0x32>

	if (!READ(D_IRQ_PINR, D_IRQ_PIN)) {
    3214:	64 99       	sbic	0x0c, 4	; 12
    3216:	1e c0       	rjmp	.+60     	; 0x3254 <CalibrateTouchScreen+0x7a>
		GetRawCoordinates(&x, &y);
    3218:	be 01       	movw	r22, r28
    321a:	6d 5f       	subi	r22, 0xFD	; 253
    321c:	7f 4f       	sbci	r23, 0xFF	; 255
    321e:	ce 01       	movw	r24, r28
    3220:	01 96       	adiw	r24, 0x01	; 1
    3222:	bd df       	rcall	.-134    	; 0x319e <GetRawCoordinates>
		x_min = x;
    3224:	89 81       	ldd	r24, Y+1	; 0x01
    3226:	9a 81       	ldd	r25, Y+2	; 0x02
    3228:	90 93 46 02 	sts	0x0246, r25	; 0x800246 <x_min+0x1>
    322c:	80 93 45 02 	sts	0x0245, r24	; 0x800245 <x_min>
		y_min = y;
    3230:	8b 81       	ldd	r24, Y+3	; 0x03
    3232:	9c 81       	ldd	r25, Y+4	; 0x04
    3234:	90 93 42 02 	sts	0x0242, r25	; 0x800242 <y_min+0x1>
    3238:	80 93 41 02 	sts	0x0241, r24	; 0x800241 <y_min>
		uart_print(", y_min: ");
		uart_print_num(y_min);
		uart_print("\r\n");
		********************************/

		while (!READ(D_IRQ_PINR, D_IRQ_PIN));  // Wait for release
    323c:	64 9b       	sbis	0x0c, 4	; 12
    323e:	fe cf       	rjmp	.-4      	; 0x323c <CalibrateTouchScreen+0x62>
	#else
		//round up by default
		__ticks_dc = (uint32_t)(ceil(fabs(__tmp)));
	#endif

	__builtin_avr_delay_cycles(__ticks_dc);
    3240:	8f e3       	ldi	r24, 0x3F	; 63
    3242:	9c e9       	ldi	r25, 0x9C	; 156
    3244:	01 97       	sbiw	r24, 0x01	; 1
    3246:	f1 f7       	brne	.-4      	; 0x3244 <CalibrateTouchScreen+0x6a>
    3248:	00 c0       	rjmp	.+0      	; 0x324a <CalibrateTouchScreen+0x70>
    324a:	00 00       	nop
		
		// Debounce
		_delay_ms(10);
		
		// Set background to white again
		BackgroundColor(31, 62, 31);
    324c:	4f e1       	ldi	r20, 0x1F	; 31
    324e:	6e e3       	ldi	r22, 0x3E	; 62
    3250:	8f e1       	ldi	r24, 0x1F	; 31
    3252:	11 de       	rcall	.-990    	; 0x2e76 <BackgroundColor>
	}
	
	// Set = 0 here and not start of while statement, because the interrupt will run again too soon.
	touch_triggered = 0;
    3254:	10 92 3e 02 	sts	0x023E, r1	; 0x80023e <touch_triggered>
    3258:	9f ef       	ldi	r25, 0xFF	; 255
    325a:	29 ef       	ldi	r18, 0xF9	; 249
    325c:	80 e0       	ldi	r24, 0x00	; 0
    325e:	91 50       	subi	r25, 0x01	; 1
    3260:	20 40       	sbci	r18, 0x00	; 0
    3262:	80 40       	sbci	r24, 0x00	; 0
    3264:	e1 f7       	brne	.-8      	; 0x325e <CalibrateTouchScreen+0x84>
    3266:	00 c0       	rjmp	.+0      	; 0x3268 <CalibrateTouchScreen+0x8e>
    3268:	00 00       	nop
	
	// Debounce lifting finger
	_delay_ms(20);

	// Show square in bottom rightmost corner
	DrawSquare(220, 0, 20, 0, 0, 31);
    326a:	0f 2e       	mov	r0, r31
    326c:	ff e1       	ldi	r31, 0x1F	; 31
    326e:	ef 2e       	mov	r14, r31
    3270:	f0 2d       	mov	r31, r0
    3272:	00 e0       	ldi	r16, 0x00	; 0
    3274:	20 e0       	ldi	r18, 0x00	; 0
    3276:	44 e1       	ldi	r20, 0x14	; 20
    3278:	50 e0       	ldi	r21, 0x00	; 0
    327a:	60 e0       	ldi	r22, 0x00	; 0
    327c:	70 e0       	ldi	r23, 0x00	; 0
    327e:	8c ed       	ldi	r24, 0xDC	; 220
    3280:	90 e0       	ldi	r25, 0x00	; 0
    3282:	c9 de       	rcall	.-622    	; 0x3016 <DrawSquare>

	// Wait for second touch (bottom right)
	while (!touch_triggered);
    3284:	80 91 3e 02 	lds	r24, 0x023E	; 0x80023e <touch_triggered>
    3288:	88 23       	and	r24, r24
    328a:	e1 f3       	breq	.-8      	; 0x3284 <CalibrateTouchScreen+0xaa>
	touch_triggered = 0;
    328c:	10 92 3e 02 	sts	0x023E, r1	; 0x80023e <touch_triggered>

	if (!READ(D_IRQ_PINR, D_IRQ_PIN)) {
    3290:	64 99       	sbic	0x0c, 4	; 12
    3292:	1e c0       	rjmp	.+60     	; 0x32d0 <CalibrateTouchScreen+0xf6>
		GetRawCoordinates(&x, &y);
    3294:	be 01       	movw	r22, r28
    3296:	6d 5f       	subi	r22, 0xFD	; 253
    3298:	7f 4f       	sbci	r23, 0xFF	; 255
    329a:	ce 01       	movw	r24, r28
    329c:	01 96       	adiw	r24, 0x01	; 1
    329e:	7f df       	rcall	.-258    	; 0x319e <GetRawCoordinates>
		x_max = x;
    32a0:	89 81       	ldd	r24, Y+1	; 0x01
    32a2:	9a 81       	ldd	r25, Y+2	; 0x02
    32a4:	90 93 44 02 	sts	0x0244, r25	; 0x800244 <x_max+0x1>
    32a8:	80 93 43 02 	sts	0x0243, r24	; 0x800243 <x_max>
		y_max = y;
    32ac:	8b 81       	ldd	r24, Y+3	; 0x03
    32ae:	9c 81       	ldd	r25, Y+4	; 0x04
    32b0:	90 93 40 02 	sts	0x0240, r25	; 0x800240 <y_max+0x1>
    32b4:	80 93 3f 02 	sts	0x023F, r24	; 0x80023f <y_max>
    32b8:	8f e3       	ldi	r24, 0x3F	; 63
    32ba:	9c e9       	ldi	r25, 0x9C	; 156
    32bc:	01 97       	sbiw	r24, 0x01	; 1
    32be:	f1 f7       	brne	.-4      	; 0x32bc <CalibrateTouchScreen+0xe2>
    32c0:	00 c0       	rjmp	.+0      	; 0x32c2 <CalibrateTouchScreen+0xe8>
		uart_print_num(y_max);
		uart_print("\r\n");
		***********************************/
		
		_delay_ms(10);
		while (!READ(D_IRQ_PINR, D_IRQ_PIN));  // Wait for release
    32c2:	00 00       	nop
    32c4:	64 9b       	sbis	0x0c, 4	; 12
		
		BackgroundColor(31, 62, 31);
    32c6:	fe cf       	rjmp	.-4      	; 0x32c4 <CalibrateTouchScreen+0xea>
    32c8:	4f e1       	ldi	r20, 0x1F	; 31
    32ca:	6e e3       	ldi	r22, 0x3E	; 62
    32cc:	8f e1       	ldi	r24, 0x1F	; 31
    32ce:	d3 dd       	rcall	.-1114   	; 0x2e76 <BackgroundColor>
	}
	
	touch_triggered = 0;
    32d0:	10 92 3e 02 	sts	0x023E, r1	; 0x80023e <touch_triggered>
}
    32d4:	0f 90       	pop	r0
    32d6:	0f 90       	pop	r0
    32d8:	0f 90       	pop	r0
    32da:	0f 90       	pop	r0
    32dc:	df 91       	pop	r29
    32de:	cf 91       	pop	r28
    32e0:	0f 91       	pop	r16
    32e2:	ef 90       	pop	r14
    32e4:	08 95       	ret

000032e6 <USART0_Init>:

// Initializes USART
void USART0_Init(unsigned int ubrr) {
	
	// Need to set the Baud rate registers for USART
	UBRR0H = (unsigned char)(ubrr >> 8); // Holds high byte (15-8)
    32e6:	90 93 c5 00 	sts	0x00C5, r25	; 0x8000c5 <__TEXT_REGION_LENGTH__+0x7c00c5>
	UBRR0L = (unsigned char)ubrr; // Holds low byte (7-0)
    32ea:	80 93 c4 00 	sts	0x00C4, r24	; 0x8000c4 <__TEXT_REGION_LENGTH__+0x7c00c4>
	
	UCSR0B = (1 << TXEN0); // UCSR0B is USART control and status register B, (1<<TXEN0) enables transmission
    32ee:	88 e0       	ldi	r24, 0x08	; 8
    32f0:	80 93 c1 00 	sts	0x00C1, r24	; 0x8000c1 <__TEXT_REGION_LENGTH__+0x7c00c1>
	UCSR0C = (1 << UCSZ01) | (1 << UCSZ00); // UCSR0C is USART control and status register C, this sets USART to 8-bit mode, USBS0=0 mean 1 stop bit {8N1 mode}
    32f4:	86 e0       	ldi	r24, 0x06	; 6
    32f6:	80 93 c2 00 	sts	0x00C2, r24	; 0x8000c2 <__TEXT_REGION_LENGTH__+0x7c00c2>
    32fa:	08 95       	ret

000032fc <USART0_Transmit>:
}

// Transmits 1 byte of data
void USART0_Transmit(unsigned char data) {
	while (!(UCSR0A & (1 << UDRE0))); // Loops until UDRE0 in UCSR0A becomes 1 (When UDRE0=1, status flag is low, we can transmit again)
    32fc:	90 91 c0 00 	lds	r25, 0x00C0	; 0x8000c0 <__TEXT_REGION_LENGTH__+0x7c00c0>
    3300:	95 ff       	sbrs	r25, 5
    3302:	fc cf       	rjmp	.-8      	; 0x32fc <USART0_Transmit>
	UDR0 = data; // Set send/receive USART register to data
    3304:	80 93 c6 00 	sts	0x00C6, r24	; 0x8000c6 <__TEXT_REGION_LENGTH__+0x7c00c6>
    3308:	08 95       	ret

0000330a <USART0_SendString>:
}

void USART0_SendString(const char *str) {
    330a:	cf 93       	push	r28
    330c:	df 93       	push	r29
    330e:	ec 01       	movw	r28, r24
	while (*str) USART0_Transmit(*str++); // While characters in string (*str) to transmit, send character, in C strings are null-terminated.
    3310:	02 c0       	rjmp	.+4      	; 0x3316 <USART0_SendString+0xc>
    3312:	21 96       	adiw	r28, 0x01	; 1
    3314:	f3 df       	rcall	.-26     	; 0x32fc <USART0_Transmit>
    3316:	88 81       	ld	r24, Y
    3318:	81 11       	cpse	r24, r1
    331a:	fb cf       	rjmp	.-10     	; 0x3312 <USART0_SendString+0x8>
    331c:	df 91       	pop	r29
    331e:	cf 91       	pop	r28
    3320:	08 95       	ret

00003322 <log_rms_to_sd>:
	strcpy(filename_out, "EMG999.TXT");
}

/************************************************ Helper: log one RMS line ************************************************/
// Must only be called after f_open(&file, ...) has succeeded.
static void log_rms_to_sd(uint32_t rms_mv) {
    3322:	0f 93       	push	r16
    3324:	1f 93       	push	r17
    3326:	cf 93       	push	r28
    3328:	df 93       	push	r29
    332a:	cd b7       	in	r28, 0x3d	; 61
    332c:	de b7       	in	r29, 0x3e	; 62
    332e:	62 97       	sbiw	r28, 0x12	; 18
    3330:	0f b6       	in	r0, 0x3f	; 63
    3332:	f8 94       	cli
    3334:	de bf       	out	0x3e, r29	; 62
    3336:	0f be       	out	0x3f, r0	; 63
    3338:	cd bf       	out	0x3d, r28	; 61
	char line[16];
	UINT bytes_written;
	// Format "<number>\n", e.g. "1234\n"
	uint8_t len = sprintf(line, "%lu\n", rms_mv);
    333a:	9f 93       	push	r25
    333c:	8f 93       	push	r24
    333e:	7f 93       	push	r23
    3340:	6f 93       	push	r22
    3342:	8d e1       	ldi	r24, 0x1D	; 29
    3344:	92 e0       	ldi	r25, 0x02	; 2
    3346:	9f 93       	push	r25
    3348:	8f 93       	push	r24
    334a:	8e 01       	movw	r16, r28
    334c:	0f 5f       	subi	r16, 0xFF	; 255
    334e:	1f 4f       	sbci	r17, 0xFF	; 255
    3350:	1f 93       	push	r17
    3352:	0f 93       	push	r16
    3354:	24 d4       	rcall	.+2120   	; 0x3b9e <sprintf>
	f_write(&file, line, len, &bytes_written);
    3356:	ac 01       	movw	r20, r24
    3358:	55 27       	eor	r21, r21
    335a:	9e 01       	movw	r18, r28
    335c:	2f 5e       	subi	r18, 0xEF	; 239
    335e:	3f 4f       	sbci	r19, 0xFF	; 255
    3360:	b8 01       	movw	r22, r16
    3362:	86 e4       	ldi	r24, 0x46	; 70
    3364:	98 e0       	ldi	r25, 0x08	; 8
    3366:	0e 94 df 10 	call	0x21be	; 0x21be <f_write>
	// (Optional: verify bytes_written == len / check return code)
}
    336a:	0f b6       	in	r0, 0x3f	; 63
    336c:	f8 94       	cli
    336e:	de bf       	out	0x3e, r29	; 62
    3370:	0f be       	out	0x3f, r0	; 63
    3372:	cd bf       	out	0x3d, r28	; 61
    3374:	62 96       	adiw	r28, 0x12	; 18
    3376:	0f b6       	in	r0, 0x3f	; 63
    3378:	f8 94       	cli
    337a:	de bf       	out	0x3e, r29	; 62
    337c:	0f be       	out	0x3f, r0	; 63
    337e:	cd bf       	out	0x3d, r28	; 61
    3380:	df 91       	pop	r29
    3382:	cf 91       	pop	r28
    3384:	1f 91       	pop	r17
    3386:	0f 91       	pop	r16
    3388:	08 95       	ret

0000338a <get_new_filename>:

/************************************************ Helper: generate new filename ******************************************/
// Scans "EMG000.TXT", "EMG001.TXT",  up to "EMG999.TXT"
// and returns the first one that does not yet exist.
// If all 000999 are taken, returns "EMG999.TXT" as fallback.
static void get_new_filename(char *filename_out) {
    338a:	ef 92       	push	r14
    338c:	ff 92       	push	r15
    338e:	0f 93       	push	r16
    3390:	1f 93       	push	r17
    3392:	cf 93       	push	r28
    3394:	df 93       	push	r29
    3396:	cd b7       	in	r28, 0x3d	; 61
    3398:	de b7       	in	r29, 0x3e	; 62
    339a:	66 97       	sbiw	r28, 0x16	; 22
    339c:	0f b6       	in	r0, 0x3f	; 63
    339e:	f8 94       	cli
    33a0:	de bf       	out	0x3e, r29	; 62
    33a2:	0f be       	out	0x3f, r0	; 63
    33a4:	cd bf       	out	0x3d, r28	; 61
    33a6:	e8 2e       	mov	r14, r24
    33a8:	f9 2e       	mov	r15, r25
	FILINFO fno;
	for (uint16_t idx = 0; idx < 1000; idx++) {
    33aa:	00 e0       	ldi	r16, 0x00	; 0
    33ac:	10 e0       	ldi	r17, 0x00	; 0
    33ae:	19 c0       	rjmp	.+50     	; 0x33e2 <get_new_filename+0x58>
		// Format "EMG000.TXT"  "EMG999.TXT"
		sprintf(filename_out, "EMG%03u.TXT", idx);
    33b0:	1f 93       	push	r17
    33b2:	0f 93       	push	r16
    33b4:	82 e2       	ldi	r24, 0x22	; 34
    33b6:	92 e0       	ldi	r25, 0x02	; 2
    33b8:	9f 93       	push	r25
    33ba:	8f 93       	push	r24
    33bc:	ff 92       	push	r15
    33be:	ef 92       	push	r14
    33c0:	ee d3       	rcall	.+2012   	; 0x3b9e <sprintf>
		if (f_stat(filename_out, &fno) == FR_NO_FILE) {
    33c2:	be 01       	movw	r22, r28
    33c4:	6f 5f       	subi	r22, 0xFF	; 255
    33c6:	7f 4f       	sbci	r23, 0xFF	; 255
    33c8:	8e 2d       	mov	r24, r14
    33ca:	9f 2d       	mov	r25, r15
    33cc:	8a d9       	rcall	.-3308   	; 0x26e2 <f_stat>
    33ce:	0f 90       	pop	r0
    33d0:	0f 90       	pop	r0
    33d2:	0f 90       	pop	r0
    33d4:	0f 90       	pop	r0
    33d6:	0f 90       	pop	r0
    33d8:	0f 90       	pop	r0
    33da:	84 30       	cpi	r24, 0x04	; 4
    33dc:	79 f0       	breq	.+30     	; 0x33fc <get_new_filename+0x72>
// Scans "EMG000.TXT", "EMG001.TXT",  up to "EMG999.TXT"
// and returns the first one that does not yet exist.
// If all 000999 are taken, returns "EMG999.TXT" as fallback.
static void get_new_filename(char *filename_out) {
	FILINFO fno;
	for (uint16_t idx = 0; idx < 1000; idx++) {
    33de:	0f 5f       	subi	r16, 0xFF	; 255
    33e0:	1f 4f       	sbci	r17, 0xFF	; 255
    33e2:	08 3e       	cpi	r16, 0xE8	; 232
    33e4:	83 e0       	ldi	r24, 0x03	; 3
    33e6:	18 07       	cpc	r17, r24
    33e8:	18 f3       	brcs	.-58     	; 0x33b0 <get_new_filename+0x26>
			// This one doesnt exist yet ? use it
			return;
		}
	}
	// If all 000..999 exist, just use 999:
	strcpy(filename_out, "EMG999.TXT");
    33ea:	8b e0       	ldi	r24, 0x0B	; 11
    33ec:	ee e2       	ldi	r30, 0x2E	; 46
    33ee:	f2 e0       	ldi	r31, 0x02	; 2
    33f0:	ae 2d       	mov	r26, r14
    33f2:	bf 2d       	mov	r27, r15
    33f4:	01 90       	ld	r0, Z+
    33f6:	0d 92       	st	X+, r0
    33f8:	8a 95       	dec	r24
    33fa:	e1 f7       	brne	.-8      	; 0x33f4 <get_new_filename+0x6a>
}
    33fc:	66 96       	adiw	r28, 0x16	; 22
    33fe:	0f b6       	in	r0, 0x3f	; 63
    3400:	f8 94       	cli
    3402:	de bf       	out	0x3e, r29	; 62
    3404:	0f be       	out	0x3f, r0	; 63
    3406:	cd bf       	out	0x3d, r28	; 61
    3408:	df 91       	pop	r29
    340a:	cf 91       	pop	r28
    340c:	1f 91       	pop	r17
    340e:	0f 91       	pop	r16
    3410:	ff 90       	pop	r15
    3412:	ef 90       	pop	r14
    3414:	08 95       	ret

00003416 <pwm_init>:
// Blink flag (set in Timer1 interrupt)
volatile uint8_t blink_flag = 0;

/******************************************************* PWM *************************************************************/
void pwm_init(void) {
	DDRH |= (1 << PH5);
    3416:	e1 e0       	ldi	r30, 0x01	; 1
    3418:	f1 e0       	ldi	r31, 0x01	; 1
    341a:	80 81       	ld	r24, Z
    341c:	80 62       	ori	r24, 0x20	; 32
    341e:	80 83       	st	Z, r24
	TCCR4A = (1 << COM4C1);
    3420:	88 e0       	ldi	r24, 0x08	; 8
    3422:	80 93 a0 00 	sts	0x00A0, r24	; 0x8000a0 <__TEXT_REGION_LENGTH__+0x7c00a0>
	TCCR4B = (1 << WGM43) | (1 << WGM42)
    3426:	8b e1       	ldi	r24, 0x1B	; 27
    3428:	80 93 a1 00 	sts	0x00A1, r24	; 0x8000a1 <__TEXT_REGION_LENGTH__+0x7c00a1>
	| (1 << CS41) | (1 << CS40);
	ICR4 = 4999;
    342c:	87 e8       	ldi	r24, 0x87	; 135
    342e:	93 e1       	ldi	r25, 0x13	; 19
    3430:	90 93 a7 00 	sts	0x00A7, r25	; 0x8000a7 <__TEXT_REGION_LENGTH__+0x7c00a7>
    3434:	80 93 a6 00 	sts	0x00A6, r24	; 0x8000a6 <__TEXT_REGION_LENGTH__+0x7c00a6>
    3438:	08 95       	ret

0000343a <pwm_set_duty>:
}

void pwm_set_duty(uint16_t duty_percent) {
	OCR4C = ((uint32_t)ICR4 * duty_percent) / 100;
    343a:	20 91 a6 00 	lds	r18, 0x00A6	; 0x8000a6 <__TEXT_REGION_LENGTH__+0x7c00a6>
    343e:	30 91 a7 00 	lds	r19, 0x00A7	; 0x8000a7 <__TEXT_REGION_LENGTH__+0x7c00a7>
    3442:	dc 01       	movw	r26, r24
    3444:	6a d3       	rcall	.+1748   	; 0x3b1a <__umulhisi3>
    3446:	24 e6       	ldi	r18, 0x64	; 100
    3448:	30 e0       	ldi	r19, 0x00	; 0
    344a:	40 e0       	ldi	r20, 0x00	; 0
    344c:	50 e0       	ldi	r21, 0x00	; 0
    344e:	3d d3       	rcall	.+1658   	; 0x3aca <__udivmodsi4>
    3450:	30 93 ad 00 	sts	0x00AD, r19	; 0x8000ad <__TEXT_REGION_LENGTH__+0x7c00ad>
    3454:	20 93 ac 00 	sts	0x00AC, r18	; 0x8000ac <__TEXT_REGION_LENGTH__+0x7c00ac>
    3458:	08 95       	ret

0000345a <adc_init>:
}

/******************************************************* ADC *************************************************************/
void adc_init(void) {
	ADMUX = (1 << REFS0) | (1 << MUX2); // AVcc as ref (5 V), ADC4 (A4)
    345a:	84 e4       	ldi	r24, 0x44	; 68
    345c:	80 93 7c 00 	sts	0x007C, r24	; 0x80007c <__TEXT_REGION_LENGTH__+0x7c007c>
	ADCSRA = (1 << ADEN)               // enable ADC
    3460:	ea e7       	ldi	r30, 0x7A	; 122
    3462:	f0 e0       	ldi	r31, 0x00	; 0
    3464:	8f e8       	ldi	r24, 0x8F	; 143
    3466:	80 83       	st	Z, r24
	| (1 << ADIE)               // enable ADC interrupt
	| (1 << ADPS2) | (1 << ADPS1) | (1 << ADPS0); // prescaler=128
	sei();                             // ensure global interrupts enabled
    3468:	78 94       	sei
	ADCSRA |= (1 << ADSC);             // start first conversion
    346a:	80 81       	ld	r24, Z
    346c:	80 64       	ori	r24, 0x40	; 64
    346e:	80 83       	st	Z, r24
    3470:	08 95       	ret

00003472 <__vector_29>:
}

ISR(ADC_vect) {
    3472:	1f 92       	push	r1
    3474:	0f 92       	push	r0
    3476:	0f b6       	in	r0, 0x3f	; 63
    3478:	0f 92       	push	r0
    347a:	11 24       	eor	r1, r1
    347c:	0b b6       	in	r0, 0x3b	; 59
    347e:	0f 92       	push	r0
    3480:	2f 93       	push	r18
    3482:	3f 93       	push	r19
    3484:	8f 93       	push	r24
    3486:	9f 93       	push	r25
    3488:	ef 93       	push	r30
    348a:	ff 93       	push	r31
	emg_samples[emg_index++] = ADC;
    348c:	80 91 55 02 	lds	r24, 0x0255	; 0x800255 <emg_index>
    3490:	90 91 56 02 	lds	r25, 0x0256	; 0x800256 <emg_index+0x1>
    3494:	9c 01       	movw	r18, r24
    3496:	2f 5f       	subi	r18, 0xFF	; 255
    3498:	3f 4f       	sbci	r19, 0xFF	; 255
    349a:	30 93 56 02 	sts	0x0256, r19	; 0x800256 <emg_index+0x1>
    349e:	20 93 55 02 	sts	0x0255, r18	; 0x800255 <emg_index>
    34a2:	20 91 78 00 	lds	r18, 0x0078	; 0x800078 <__TEXT_REGION_LENGTH__+0x7c0078>
    34a6:	30 91 79 00 	lds	r19, 0x0079	; 0x800079 <__TEXT_REGION_LENGTH__+0x7c0079>
    34aa:	88 0f       	add	r24, r24
    34ac:	99 1f       	adc	r25, r25
    34ae:	fc 01       	movw	r30, r24
    34b0:	ea 57       	subi	r30, 0x7A	; 122
    34b2:	fb 4f       	sbci	r31, 0xFB	; 251
    34b4:	31 83       	std	Z+1, r19	; 0x01
    34b6:	20 83       	st	Z, r18
	if (emg_index >= BUFFER_SIZE) {
    34b8:	80 91 55 02 	lds	r24, 0x0255	; 0x800255 <emg_index>
    34bc:	90 91 56 02 	lds	r25, 0x0256	; 0x800256 <emg_index+0x1>
    34c0:	80 3e       	cpi	r24, 0xE0	; 224
    34c2:	91 40       	sbci	r25, 0x01	; 1
    34c4:	38 f0       	brcs	.+14     	; 0x34d4 <__vector_29+0x62>
		emg_index = 0;
    34c6:	10 92 56 02 	sts	0x0256, r1	; 0x800256 <emg_index+0x1>
    34ca:	10 92 55 02 	sts	0x0255, r1	; 0x800255 <emg_index>
		emg_buffer_full = 1;
    34ce:	81 e0       	ldi	r24, 0x01	; 1
    34d0:	80 93 54 02 	sts	0x0254, r24	; 0x800254 <emg_buffer_full>
	}
	ADCSRA |= (1 << ADSC); // start next conversion
    34d4:	ea e7       	ldi	r30, 0x7A	; 122
    34d6:	f0 e0       	ldi	r31, 0x00	; 0
    34d8:	80 81       	ld	r24, Z
    34da:	80 64       	ori	r24, 0x40	; 64
    34dc:	80 83       	st	Z, r24
}
    34de:	ff 91       	pop	r31
    34e0:	ef 91       	pop	r30
    34e2:	9f 91       	pop	r25
    34e4:	8f 91       	pop	r24
    34e6:	3f 91       	pop	r19
    34e8:	2f 91       	pop	r18
    34ea:	0f 90       	pop	r0
    34ec:	0b be       	out	0x3b, r0	; 59
    34ee:	0f 90       	pop	r0
    34f0:	0f be       	out	0x3f, r0	; 63
    34f2:	0f 90       	pop	r0
    34f4:	1f 90       	pop	r1
    34f6:	18 95       	reti

000034f8 <timer1_init>:

/************************************************ Timer1: 1 Hz interrupt for blinking *************************************************/
void timer1_init(void) {
	// Configure Timer1 in CTC mode (clear on compare match)
	TCCR1B |= (1 << WGM12);
    34f8:	e1 e8       	ldi	r30, 0x81	; 129
    34fa:	f0 e0       	ldi	r31, 0x00	; 0
    34fc:	80 81       	ld	r24, Z
    34fe:	88 60       	ori	r24, 0x08	; 8
    3500:	80 83       	st	Z, r24
	// Set prescaler to 256
	TCCR1B |= (1 << CS12);
    3502:	80 81       	ld	r24, Z
    3504:	84 60       	ori	r24, 0x04	; 4
    3506:	80 83       	st	Z, r24
	// Calculate OCR1A for 1 Hz tick:
	// 16,000,000 / 256 = 62500 counts per second
	// OCR1A = 62500 - 1
	OCR1A = 62499;
    3508:	83 e2       	ldi	r24, 0x23	; 35
    350a:	94 ef       	ldi	r25, 0xF4	; 244
    350c:	90 93 89 00 	sts	0x0089, r25	; 0x800089 <__TEXT_REGION_LENGTH__+0x7c0089>
    3510:	80 93 88 00 	sts	0x0088, r24	; 0x800088 <__TEXT_REGION_LENGTH__+0x7c0088>
	// Enable Timer1 compare-match interrupt
	TIMSK1 |= (1 << OCIE1A);
    3514:	ef e6       	ldi	r30, 0x6F	; 111
    3516:	f0 e0       	ldi	r31, 0x00	; 0
    3518:	80 81       	ld	r24, Z
    351a:	82 60       	ori	r24, 0x02	; 2
    351c:	80 83       	st	Z, r24
    351e:	08 95       	ret

00003520 <__vector_17>:
}

ISR(TIMER1_COMPA_vect) {
    3520:	1f 92       	push	r1
    3522:	0f 92       	push	r0
    3524:	0f b6       	in	r0, 0x3f	; 63
    3526:	0f 92       	push	r0
    3528:	11 24       	eor	r1, r1
    352a:	8f 93       	push	r24
	blink_flag = 1;
    352c:	81 e0       	ldi	r24, 0x01	; 1
    352e:	80 93 48 02 	sts	0x0248, r24	; 0x800248 <blink_flag>
}
    3532:	8f 91       	pop	r24
    3534:	0f 90       	pop	r0
    3536:	0f be       	out	0x3f, r0	; 63
    3538:	0f 90       	pop	r0
    353a:	1f 90       	pop	r1
    353c:	18 95       	reti

0000353e <calculate_RMS>:

/************************************************ RMS Calculation ********************************************************/
uint16_t calculate_RMS(void) {
    353e:	8f 92       	push	r8
    3540:	9f 92       	push	r9
    3542:	af 92       	push	r10
    3544:	bf 92       	push	r11
    3546:	cf 92       	push	r12
    3548:	df 92       	push	r13
    354a:	ef 92       	push	r14
    354c:	ff 92       	push	r15
	uint32_t sum = 0;
	for (uint16_t i = 0; i < BUFFER_SIZE; i++) {
    354e:	80 e0       	ldi	r24, 0x00	; 0
    3550:	90 e0       	ldi	r25, 0x00	; 0
	blink_flag = 1;
}

/************************************************ RMS Calculation ********************************************************/
uint16_t calculate_RMS(void) {
	uint32_t sum = 0;
    3552:	40 e0       	ldi	r20, 0x00	; 0
    3554:	50 e0       	ldi	r21, 0x00	; 0
    3556:	ba 01       	movw	r22, r20
	for (uint16_t i = 0; i < BUFFER_SIZE; i++) {
    3558:	0c c0       	rjmp	.+24     	; 0x3572 <calculate_RMS+0x34>
		sum += emg_samples[i];
    355a:	fc 01       	movw	r30, r24
    355c:	ee 0f       	add	r30, r30
    355e:	ff 1f       	adc	r31, r31
    3560:	ea 57       	subi	r30, 0x7A	; 122
    3562:	fb 4f       	sbci	r31, 0xFB	; 251
    3564:	20 81       	ld	r18, Z
    3566:	31 81       	ldd	r19, Z+1	; 0x01
    3568:	42 0f       	add	r20, r18
    356a:	53 1f       	adc	r21, r19
    356c:	61 1d       	adc	r22, r1
    356e:	71 1d       	adc	r23, r1
}

/************************************************ RMS Calculation ********************************************************/
uint16_t calculate_RMS(void) {
	uint32_t sum = 0;
	for (uint16_t i = 0; i < BUFFER_SIZE; i++) {
    3570:	01 96       	adiw	r24, 0x01	; 1
    3572:	80 3e       	cpi	r24, 0xE0	; 224
    3574:	21 e0       	ldi	r18, 0x01	; 1
    3576:	92 07       	cpc	r25, r18
    3578:	80 f3       	brcs	.-32     	; 0x355a <calculate_RMS+0x1c>
		sum += emg_samples[i];
	}
	uint16_t mean = sum / BUFFER_SIZE;
    357a:	cb 01       	movw	r24, r22
    357c:	ba 01       	movw	r22, r20
    357e:	20 ee       	ldi	r18, 0xE0	; 224
    3580:	31 e0       	ldi	r19, 0x01	; 1
    3582:	40 e0       	ldi	r20, 0x00	; 0
    3584:	50 e0       	ldi	r21, 0x00	; 0
    3586:	a1 d2       	rcall	.+1346   	; 0x3aca <__udivmodsi4>
    3588:	49 01       	movw	r8, r18
    358a:	5a 01       	movw	r10, r20

	uint32_t sum_squares = 0;
	for (uint16_t i = 0; i < BUFFER_SIZE; i++) {
    358c:	40 e0       	ldi	r20, 0x00	; 0
    358e:	50 e0       	ldi	r21, 0x00	; 0
	for (uint16_t i = 0; i < BUFFER_SIZE; i++) {
		sum += emg_samples[i];
	}
	uint16_t mean = sum / BUFFER_SIZE;

	uint32_t sum_squares = 0;
    3590:	c1 2c       	mov	r12, r1
    3592:	d1 2c       	mov	r13, r1
    3594:	76 01       	movw	r14, r12
	for (uint16_t i = 0; i < BUFFER_SIZE; i++) {
    3596:	11 c0       	rjmp	.+34     	; 0x35ba <calculate_RMS+0x7c>
		int16_t centered = (int16_t)emg_samples[i] - (int16_t)mean;
    3598:	fa 01       	movw	r30, r20
    359a:	ee 0f       	add	r30, r30
    359c:	ff 1f       	adc	r31, r31
    359e:	ea 57       	subi	r30, 0x7A	; 122
    35a0:	fb 4f       	sbci	r31, 0xFB	; 251
    35a2:	a0 81       	ld	r26, Z
    35a4:	b1 81       	ldd	r27, Z+1	; 0x01
    35a6:	a8 19       	sub	r26, r8
    35a8:	b9 09       	sbc	r27, r9
		sum_squares += (uint32_t)centered * centered;
    35aa:	9d 01       	movw	r18, r26
    35ac:	b0 d2       	rcall	.+1376   	; 0x3b0e <__mulhisi3>
    35ae:	c6 0e       	add	r12, r22
    35b0:	d7 1e       	adc	r13, r23
    35b2:	e8 1e       	adc	r14, r24
    35b4:	f9 1e       	adc	r15, r25
		sum += emg_samples[i];
	}
	uint16_t mean = sum / BUFFER_SIZE;

	uint32_t sum_squares = 0;
	for (uint16_t i = 0; i < BUFFER_SIZE; i++) {
    35b6:	4f 5f       	subi	r20, 0xFF	; 255
    35b8:	5f 4f       	sbci	r21, 0xFF	; 255
    35ba:	40 3e       	cpi	r20, 0xE0	; 224
    35bc:	81 e0       	ldi	r24, 0x01	; 1
    35be:	58 07       	cpc	r21, r24
    35c0:	58 f3       	brcs	.-42     	; 0x3598 <calculate_RMS+0x5a>
		int16_t centered = (int16_t)emg_samples[i] - (int16_t)mean;
		sum_squares += (uint32_t)centered * centered;
	}
	uint32_t mean_square = sum_squares / BUFFER_SIZE;
    35c2:	c7 01       	movw	r24, r14
    35c4:	b6 01       	movw	r22, r12
    35c6:	20 ee       	ldi	r18, 0xE0	; 224
    35c8:	31 e0       	ldi	r19, 0x01	; 1
    35ca:	40 e0       	ldi	r20, 0x00	; 0
    35cc:	50 e0       	ldi	r21, 0x00	; 0
    35ce:	7d d2       	rcall	.+1274   	; 0x3aca <__udivmodsi4>
    35d0:	69 01       	movw	r12, r18
    35d2:	7a 01       	movw	r14, r20
	return (uint16_t)sqrt((double)mean_square);
    35d4:	c7 01       	movw	r24, r14
    35d6:	b6 01       	movw	r22, r12
    35d8:	b8 d1       	rcall	.+880    	; 0x394a <__floatunsisf>
    35da:	21 d2       	rcall	.+1090   	; 0x3a1e <sqrt>
    35dc:	8a d1       	rcall	.+788    	; 0x38f2 <__fixunssfsi>
    35de:	cb 01       	movw	r24, r22
}
    35e0:	ff 90       	pop	r15
    35e2:	ef 90       	pop	r14
    35e4:	df 90       	pop	r13
    35e6:	cf 90       	pop	r12
    35e8:	bf 90       	pop	r11
    35ea:	af 90       	pop	r10
    35ec:	9f 90       	pop	r9
    35ee:	8f 90       	pop	r8
    35f0:	08 95       	ret

000035f2 <closeHand>:
    35f2:	86 e0       	ldi	r24, 0x06	; 6

/************************************************ Motor Control **********************************************************/
void closeHand(void) {
	pwm_set_duty(6);
    35f4:	90 e0       	ldi	r25, 0x00	; 0
    35f6:	21 df       	rcall	.-446    	; 0x343a <pwm_set_duty>
    35f8:	2f ef       	ldi	r18, 0xFF	; 255
    35fa:	89 e6       	ldi	r24, 0x69	; 105
    35fc:	98 e1       	ldi	r25, 0x18	; 24
    35fe:	21 50       	subi	r18, 0x01	; 1
    3600:	80 40       	sbci	r24, 0x00	; 0
    3602:	90 40       	sbci	r25, 0x00	; 0
    3604:	e1 f7       	brne	.-8      	; 0x35fe <closeHand+0xc>
    3606:	00 c0       	rjmp	.+0      	; 0x3608 <closeHand+0x16>
    3608:	00 00       	nop
	_delay_ms(500);
	pwm_set_duty(0);
    360a:	80 e0       	ldi	r24, 0x00	; 0
    360c:	90 e0       	ldi	r25, 0x00	; 0
    360e:	15 cf       	rjmp	.-470    	; 0x343a <pwm_set_duty>
    3610:	08 95       	ret

00003612 <openHand>:
}

void openHand(void) {
	pwm_set_duty(9);
    3612:	89 e0       	ldi	r24, 0x09	; 9
    3614:	90 e0       	ldi	r25, 0x00	; 0
    3616:	11 df       	rcall	.-478    	; 0x343a <pwm_set_duty>
    3618:	2f e7       	ldi	r18, 0x7F	; 127
    361a:	81 e3       	ldi	r24, 0x31	; 49
    361c:	97 e1       	ldi	r25, 0x17	; 23
    361e:	21 50       	subi	r18, 0x01	; 1
    3620:	80 40       	sbci	r24, 0x00	; 0
    3622:	90 40       	sbci	r25, 0x00	; 0
    3624:	e1 f7       	brne	.-8      	; 0x361e <openHand+0xc>
    3626:	00 c0       	rjmp	.+0      	; 0x3628 <openHand+0x16>
    3628:	00 00       	nop
	_delay_ms(475);
	pwm_set_duty(0);
    362a:	80 e0       	ldi	r24, 0x00	; 0
    362c:	90 e0       	ldi	r25, 0x00	; 0
    362e:	05 cf       	rjmp	.-502    	; 0x343a <pwm_set_duty>
    3630:	08 95       	ret

00003632 <ScreenA>:
	// (Optional: verify bytes_written == len / check return code)
}

/************************************************ Screen A: live EMG visualization ***********************************************/
void ScreenA(void) {
	if (emg_buffer_full) {
    3632:	80 91 54 02 	lds	r24, 0x0254	; 0x800254 <emg_buffer_full>
    3636:	88 23       	and	r24, r24
    3638:	09 f4       	brne	.+2      	; 0x363c <ScreenA+0xa>
    363a:	97 c0       	rjmp	.+302    	; 0x376a <ScreenA+0x138>
		emg_buffer_full = 0;
    363c:	10 92 54 02 	sts	0x0254, r1	; 0x800254 <emg_buffer_full>
		rms_adc = calculate_RMS();
    3640:	7e df       	rcall	.-260    	; 0x353e <calculate_RMS>
    3642:	90 93 53 02 	sts	0x0253, r25	; 0x800253 <rms_adc+0x1>
    3646:	80 93 52 02 	sts	0x0252, r24	; 0x800252 <rms_adc>
		// Scale (4) for display + USART:
		rms_mv = ((uint32_t)rms_adc * VREF * 4) / 1023;
    364a:	9c 01       	movw	r18, r24
    364c:	a0 e2       	ldi	r26, 0x20	; 32
    364e:	be e4       	ldi	r27, 0x4E	; 78
    3650:	64 d2       	rcall	.+1224   	; 0x3b1a <__umulhisi3>
    3652:	2f ef       	ldi	r18, 0xFF	; 255
    3654:	33 e0       	ldi	r19, 0x03	; 3
    3656:	40 e0       	ldi	r20, 0x00	; 0
    3658:	50 e0       	ldi	r21, 0x00	; 0
    365a:	37 d2       	rcall	.+1134   	; 0x3aca <__udivmodsi4>
    365c:	da 01       	movw	r26, r20
    365e:	c9 01       	movw	r24, r18
    3660:	20 93 4e 02 	sts	0x024E, r18	; 0x80024e <rms_mv>
    3664:	30 93 4f 02 	sts	0x024F, r19	; 0x80024f <rms_mv+0x1>
    3668:	40 93 50 02 	sts	0x0250, r20	; 0x800250 <rms_mv+0x2>
    366c:	50 93 51 02 	sts	0x0251, r21	; 0x800251 <rms_mv+0x3>
    } else if (__radix < 2 || __radix > 36) {
	*__s = 0;
	return __s;
    } else {
	extern char *__itoa_ncheck (int, char *, unsigned char);
	return __itoa_ncheck (__val, __s, __radix);
    3670:	4a e0       	ldi	r20, 0x0A	; 10
    3672:	68 e6       	ldi	r22, 0x68	; 104
    3674:	7a e0       	ldi	r23, 0x0A	; 10
		itoa(rms_mv, buffer, 10);
		USART0_SendString(buffer);
    3676:	70 d2       	rcall	.+1248   	; 0x3b58 <__itoa_ncheck>
    3678:	88 e6       	ldi	r24, 0x68	; 104
    367a:	9a e0       	ldi	r25, 0x0A	; 10
		USART0_Transmit('\n');
    367c:	46 de       	rcall	.-884    	; 0x330a <USART0_SendString>
    367e:	8a e0       	ldi	r24, 0x0A	; 10
    3680:	3d de       	rcall	.-902    	; 0x32fc <USART0_Transmit>

		uint16_t mapped_sample = ((rms_mv * 239UL) / 2000);
    3682:	20 91 4e 02 	lds	r18, 0x024E	; 0x80024e <rms_mv>
    3686:	30 91 4f 02 	lds	r19, 0x024F	; 0x80024f <rms_mv+0x1>
    368a:	40 91 50 02 	lds	r20, 0x0250	; 0x800250 <rms_mv+0x2>
    368e:	50 91 51 02 	lds	r21, 0x0251	; 0x800251 <rms_mv+0x3>
    3692:	af ee       	ldi	r26, 0xEF	; 239
    3694:	b0 e0       	ldi	r27, 0x00	; 0
    3696:	56 d2       	rcall	.+1196   	; 0x3b44 <__muluhisi3>
    3698:	20 ed       	ldi	r18, 0xD0	; 208
    369a:	37 e0       	ldi	r19, 0x07	; 7
    369c:	40 e0       	ldi	r20, 0x00	; 0
    369e:	50 e0       	ldi	r21, 0x00	; 0
    36a0:	14 d2       	rcall	.+1064   	; 0x3aca <__udivmodsi4>
		DrawEMG(mapped_sample, x);
    36a2:	82 2f       	mov	r24, r18
    36a4:	60 91 03 02 	lds	r22, 0x0203	; 0x800203 <x>
    36a8:	70 91 04 02 	lds	r23, 0x0204	; 0x800204 <x+0x1>
    36ac:	82 dc       	rcall	.-1788   	; 0x2fb2 <DrawEMG>
		x -= 3;
    36ae:	80 91 03 02 	lds	r24, 0x0203	; 0x800203 <x>
    36b2:	90 91 04 02 	lds	r25, 0x0204	; 0x800204 <x+0x1>
    36b6:	03 97       	sbiw	r24, 0x03	; 3
    36b8:	90 93 04 02 	sts	0x0204, r25	; 0x800204 <x+0x1>
    36bc:	80 93 03 02 	sts	0x0203, r24	; 0x800203 <x>
		if (x <= 1) {
    36c0:	02 97       	sbiw	r24, 0x02	; 2
			x = 319;
    36c2:	38 f4       	brcc	.+14     	; 0x36d2 <ScreenA+0xa0>
    36c4:	8f e3       	ldi	r24, 0x3F	; 63
    36c6:	91 e0       	ldi	r25, 0x01	; 1
    36c8:	90 93 04 02 	sts	0x0204, r25	; 0x800204 <x+0x1>
    36cc:	80 93 03 02 	sts	0x0203, r24	; 0x800203 <x>
			InitCoordinate();
    36d0:	55 dc       	rcall	.-1878   	; 0x2f7c <InitCoordinate>
		}

		if (rms_mv >= threshold) {
    36d2:	80 91 01 02 	lds	r24, 0x0201	; 0x800201 <threshold>
    36d6:	90 91 02 02 	lds	r25, 0x0202	; 0x800202 <threshold+0x1>
    36da:	a0 e0       	ldi	r26, 0x00	; 0
    36dc:	b0 e0       	ldi	r27, 0x00	; 0
    36de:	40 91 4e 02 	lds	r20, 0x024E	; 0x80024e <rms_mv>
    36e2:	50 91 4f 02 	lds	r21, 0x024F	; 0x80024f <rms_mv+0x1>
    36e6:	60 91 50 02 	lds	r22, 0x0250	; 0x800250 <rms_mv+0x2>
    36ea:	70 91 51 02 	lds	r23, 0x0251	; 0x800251 <rms_mv+0x3>
    36ee:	48 17       	cp	r20, r24
    36f0:	59 07       	cpc	r21, r25
    36f2:	6a 07       	cpc	r22, r26
    36f4:	7b 07       	cpc	r23, r27
    36f6:	98 f0       	brcs	.+38     	; 0x371e <ScreenA+0xec>
			overThreshold++;
    36f8:	80 91 4c 02 	lds	r24, 0x024C	; 0x80024c <overThreshold>
    36fc:	90 91 4d 02 	lds	r25, 0x024D	; 0x80024d <overThreshold+0x1>
    3700:	01 96       	adiw	r24, 0x01	; 1
    3702:	90 93 4d 02 	sts	0x024D, r25	; 0x80024d <overThreshold+0x1>
    3706:	80 93 4c 02 	sts	0x024C, r24	; 0x80024c <overThreshold>
			if (overThreshold == 3) {
    370a:	03 97       	sbiw	r24, 0x03	; 3
				PORTB |= (1 << PB7);  // LED on
    370c:	41 f4       	brne	.+16     	; 0x371e <ScreenA+0xec>
    370e:	85 b1       	in	r24, 0x05	; 5
    3710:	80 68       	ori	r24, 0x80	; 128
				closeHand();
    3712:	85 b9       	out	0x05, r24	; 5
    3714:	6e df       	rcall	.-292    	; 0x35f2 <closeHand>
				underThreshold = 0;
    3716:	10 92 4b 02 	sts	0x024B, r1	; 0x80024b <underThreshold+0x1>
    371a:	10 92 4a 02 	sts	0x024A, r1	; 0x80024a <underThreshold>
			}
		}
		if (rms_mv <= threshold) {
    371e:	80 91 01 02 	lds	r24, 0x0201	; 0x800201 <threshold>
    3722:	90 91 02 02 	lds	r25, 0x0202	; 0x800202 <threshold+0x1>
    3726:	a0 e0       	ldi	r26, 0x00	; 0
    3728:	b0 e0       	ldi	r27, 0x00	; 0
    372a:	40 91 4e 02 	lds	r20, 0x024E	; 0x80024e <rms_mv>
    372e:	50 91 4f 02 	lds	r21, 0x024F	; 0x80024f <rms_mv+0x1>
    3732:	60 91 50 02 	lds	r22, 0x0250	; 0x800250 <rms_mv+0x2>
    3736:	70 91 51 02 	lds	r23, 0x0251	; 0x800251 <rms_mv+0x3>
    373a:	84 17       	cp	r24, r20
    373c:	95 07       	cpc	r25, r21
    373e:	a6 07       	cpc	r26, r22
    3740:	b7 07       	cpc	r27, r23
    3742:	98 f0       	brcs	.+38     	; 0x376a <ScreenA+0x138>
			underThreshold++;
    3744:	80 91 4a 02 	lds	r24, 0x024A	; 0x80024a <underThreshold>
    3748:	90 91 4b 02 	lds	r25, 0x024B	; 0x80024b <underThreshold+0x1>
    374c:	01 96       	adiw	r24, 0x01	; 1
    374e:	90 93 4b 02 	sts	0x024B, r25	; 0x80024b <underThreshold+0x1>
    3752:	80 93 4a 02 	sts	0x024A, r24	; 0x80024a <underThreshold>
			if (underThreshold == 5) {
    3756:	05 97       	sbiw	r24, 0x05	; 5
				PORTB &= ~(1 << PB7); // LED off
    3758:	41 f4       	brne	.+16     	; 0x376a <ScreenA+0x138>
    375a:	85 b1       	in	r24, 0x05	; 5
    375c:	8f 77       	andi	r24, 0x7F	; 127
				openHand();
    375e:	85 b9       	out	0x05, r24	; 5
    3760:	58 df       	rcall	.-336    	; 0x3612 <openHand>
				overThreshold = 0;
    3762:	10 92 4d 02 	sts	0x024D, r1	; 0x80024d <overThreshold+0x1>
    3766:	10 92 4c 02 	sts	0x024C, r1	; 0x80024c <overThreshold>
    376a:	08 95       	ret

0000376c <ScreenB>:
/************************************************ Screen B: log EMG to SD & blink background ***********************************/
void ScreenB(void) {
	static uint8_t blink_state = 0;

	// Toggle background color when blink_flag is set (once per second)
	if (blink_flag) {
    376c:	80 91 48 02 	lds	r24, 0x0248	; 0x800248 <blink_flag>
    3770:	88 23       	and	r24, r24
    3772:	a1 f0       	breq	.+40     	; 0x379c <ScreenB+0x30>
		blink_flag = 0;
    3774:	10 92 48 02 	sts	0x0248, r1	; 0x800248 <blink_flag>
		blink_state = !blink_state;
    3778:	81 e0       	ldi	r24, 0x01	; 1
    377a:	90 91 47 02 	lds	r25, 0x0247	; 0x800247 <blink_state.2678>
    377e:	91 11       	cpse	r25, r1
    3780:	80 e0       	ldi	r24, 0x00	; 0
    3782:	80 93 47 02 	sts	0x0247, r24	; 0x800247 <blink_state.2678>
		if (blink_state) {
    3786:	88 23       	and	r24, r24
    3788:	29 f0       	breq	.+10     	; 0x3794 <ScreenB+0x28>
			// White background (RGB565 max)
			BackgroundColor(31, 63, 31);
    378a:	4f e1       	ldi	r20, 0x1F	; 31
    378c:	6f e3       	ldi	r22, 0x3F	; 63
    378e:	8f e1       	ldi	r24, 0x1F	; 31
    3790:	72 db       	rcall	.-2332   	; 0x2e76 <BackgroundColor>
    3792:	04 c0       	rjmp	.+8      	; 0x379c <ScreenB+0x30>
			} else {
			// Black background
			BackgroundColor(0, 0, 0);
    3794:	40 e0       	ldi	r20, 0x00	; 0
    3796:	60 e0       	ldi	r22, 0x00	; 0
    3798:	80 e0       	ldi	r24, 0x00	; 0
    379a:	6d db       	rcall	.-2342   	; 0x2e76 <BackgroundColor>
		}
	}

	if (emg_buffer_full) {
    379c:	80 91 54 02 	lds	r24, 0x0254	; 0x800254 <emg_buffer_full>
    37a0:	88 23       	and	r24, r24
    37a2:	d9 f0       	breq	.+54     	; 0x37da <ScreenB+0x6e>
		emg_buffer_full = 0;
    37a4:	10 92 54 02 	sts	0x0254, r1	; 0x800254 <emg_buffer_full>
		rms_adc = calculate_RMS();
    37a8:	ca de       	rcall	.-620    	; 0x353e <calculate_RMS>
    37aa:	90 93 53 02 	sts	0x0253, r25	; 0x800253 <rms_adc+0x1>
    37ae:	80 93 52 02 	sts	0x0252, r24	; 0x800252 <rms_adc>
		rms_mv = ((uint32_t)rms_adc * VREF * 4) / 1023;
    37b2:	9c 01       	movw	r18, r24
    37b4:	a0 e2       	ldi	r26, 0x20	; 32
    37b6:	be e4       	ldi	r27, 0x4E	; 78
    37b8:	b0 d1       	rcall	.+864    	; 0x3b1a <__umulhisi3>
    37ba:	2f ef       	ldi	r18, 0xFF	; 255
    37bc:	33 e0       	ldi	r19, 0x03	; 3
    37be:	40 e0       	ldi	r20, 0x00	; 0
    37c0:	50 e0       	ldi	r21, 0x00	; 0
    37c2:	83 d1       	rcall	.+774    	; 0x3aca <__udivmodsi4>
    37c4:	20 93 4e 02 	sts	0x024E, r18	; 0x80024e <rms_mv>
    37c8:	30 93 4f 02 	sts	0x024F, r19	; 0x80024f <rms_mv+0x1>
    37cc:	40 93 50 02 	sts	0x0250, r20	; 0x800250 <rms_mv+0x2>
    37d0:	50 93 51 02 	sts	0x0251, r21	; 0x800251 <rms_mv+0x3>
		log_rms_to_sd(rms_mv);
    37d4:	ca 01       	movw	r24, r20
    37d6:	b9 01       	movw	r22, r18
    37d8:	a4 cd       	rjmp	.-1208   	; 0x3322 <log_rms_to_sd>
    37da:	08 95       	ret

000037dc <main>:
	}
}

/*********************************************** Main *******************************************************************/
int main(void) {
    37dc:	cf 93       	push	r28
    37de:	df 93       	push	r29
    37e0:	cd b7       	in	r28, 0x3d	; 61
    37e2:	de b7       	in	r29, 0x3e	; 62
    37e4:	60 97       	sbiw	r28, 0x10	; 16
    37e6:	0f b6       	in	r0, 0x3f	; 63
    37e8:	f8 94       	cli
    37ea:	de bf       	out	0x3e, r29	; 62
    37ec:	0f be       	out	0x3f, r0	; 63
    37ee:	cd bf       	out	0x3d, r28	; 61
	// Initialize UART, ADC, PWM, Display, Touch, Pins
	USART0_Init(MYUBRR);
    37f0:	87 e6       	ldi	r24, 0x67	; 103
    37f2:	90 e0       	ldi	r25, 0x00	; 0
    37f4:	78 dd       	rcall	.-1296   	; 0x32e6 <USART0_Init>
	adc_init();
    37f6:	31 de       	rcall	.-926    	; 0x345a <adc_init>
	pwm_init();
    37f8:	0e de       	rcall	.-996    	; 0x3416 <pwm_init>
	DisplayInit();
    37fa:	e3 d9       	rcall	.-3130   	; 0x2bc2 <DisplayInit>
	InitTouchInterrupt();
    37fc:	b2 dc       	rcall	.-1692   	; 0x3162 <InitTouchInterrupt>
    37fe:	99 dc       	rcall	.-1742   	; 0x3132 <init_pins>
	init_pins();
    3800:	ec dc       	rcall	.-1576   	; 0x31da <CalibrateTouchScreen>
	CalibrateTouchScreen();
    3802:	84 b1       	in	r24, 0x04	; 4
    3804:	80 68       	ori	r24, 0x80	; 128
	DDRB |= (1 << PB7);  // Debug LED pin
    3806:	84 b9       	out	0x04, r24	; 4
    3808:	78 94       	sei
    380a:	76 de       	rcall	.-788    	; 0x34f8 <timer1_init>

	// Enable interrupts and start Timer1
	sei();
    380c:	10 92 49 02 	sts	0x0249, r1	; 0x800249 <current_state>
	timer1_init();
    3810:	8f e3       	ldi	r24, 0x3F	; 63

	current_state = STATE_SCREEN_A;
    3812:	91 e0       	ldi	r25, 0x01	; 1
	x = 319;
    3814:	90 93 04 02 	sts	0x0204, r25	; 0x800204 <x+0x1>
    3818:	80 93 03 02 	sts	0x0203, r24	; 0x800203 <x>
    381c:	af db       	rcall	.-2210   	; 0x2f7c <InitCoordinate>
    381e:	80 91 49 02 	lds	r24, 0x0249	; 0x800249 <current_state>

	// Draw Screen A axes once at startup
	InitCoordinate();

	for (;;) {
		switch (current_state) {
    3822:	88 23       	and	r24, r24
    3824:	21 f0       	breq	.+8      	; 0x382e <main+0x52>
    3826:	81 30       	cpi	r24, 0x01	; 1
    3828:	01 f1       	breq	.+64     	; 0x386a <main+0x8e>
    382a:	f9 cf       	rjmp	.-14     	; 0x381e <main+0x42>
    382c:	02 df       	rcall	.-508    	; 0x3632 <ScreenA>
    382e:	64 99       	sbic	0x0c, 4	; 12

			case STATE_SCREEN_A:
			// Run ScreenA() until a touch is detected
			while ( READ(D_IRQ_PINR, D_IRQ_PIN) ) {
				ScreenA();
    3830:	fd cf       	rjmp	.-6      	; 0x382c <main+0x50>
    3832:	2f ef       	ldi	r18, 0xFF	; 255
	for (;;) {
		switch (current_state) {

			case STATE_SCREEN_A:
			// Run ScreenA() until a touch is detected
			while ( READ(D_IRQ_PINR, D_IRQ_PIN) ) {
    3834:	80 e7       	ldi	r24, 0x70	; 112
    3836:	92 e0       	ldi	r25, 0x02	; 2
    3838:	21 50       	subi	r18, 0x01	; 1
    383a:	80 40       	sbci	r24, 0x00	; 0
    383c:	90 40       	sbci	r25, 0x00	; 0
    383e:	e1 f7       	brne	.-8      	; 0x3838 <main+0x5c>
    3840:	00 c0       	rjmp	.+0      	; 0x3842 <main+0x66>
    3842:	00 00       	nop
    3844:	64 9b       	sbis	0x0c, 4	; 12
    3846:	fe cf       	rjmp	.-4      	; 0x3844 <main+0x68>
    3848:	2f ef       	ldi	r18, 0xFF	; 255
				ScreenA();
			}
			// Finger-down ? debounce + wait for lift
			_delay_ms(50);
			while ( !READ(D_IRQ_PINR, D_IRQ_PIN) );
    384a:	80 e7       	ldi	r24, 0x70	; 112
    384c:	92 e0       	ldi	r25, 0x02	; 2
    384e:	21 50       	subi	r18, 0x01	; 1
    3850:	80 40       	sbci	r24, 0x00	; 0
    3852:	90 40       	sbci	r25, 0x00	; 0
    3854:	e1 f7       	brne	.-8      	; 0x384e <main+0x72>
    3856:	00 c0       	rjmp	.+0      	; 0x3858 <main+0x7c>
    3858:	00 00       	nop
    385a:	81 e0       	ldi	r24, 0x01	; 1
    385c:	80 93 49 02 	sts	0x0249, r24	; 0x800249 <current_state>
			_delay_ms(50);

			// Switch to Screen B
			current_state = STATE_SCREEN_B;
    3860:	40 e0       	ldi	r20, 0x00	; 0
    3862:	60 e0       	ldi	r22, 0x00	; 0
			{
				extern void ScreenB(void);
				// If "drawn_bg" logic existed, reset it here. In this version, Timer1 ISR will handle blinking.
			}
			// Initialize Screen B background immediately
			BackgroundColor(0, 0, 0);
    3864:	80 e0       	ldi	r24, 0x00	; 0
    3866:	07 db       	rcall	.-2546   	; 0x2e76 <BackgroundColor>
    3868:	da cf       	rjmp	.-76     	; 0x381e <main+0x42>
    386a:	41 e0       	ldi	r20, 0x01	; 1
    386c:	61 e2       	ldi	r22, 0x21	; 33
			break;
    386e:	72 e0       	ldi	r23, 0x02	; 2

			case STATE_SCREEN_B: {
				// Mount SD card
				if (f_mount(&fs, "", 1) != FR_OK) {
    3870:	87 e5       	ldi	r24, 0x57	; 87
    3872:	92 e0       	ldi	r25, 0x02	; 2
    3874:	0e 94 d7 0e 	call	0x1dae	; 0x1dae <f_mount>
    3878:	81 11       	cpse	r24, r1
    387a:	ff cf       	rjmp	.-2      	; 0x387a <main+0x9e>
    387c:	ce 01       	movw	r24, r28
    387e:	01 96       	adiw	r24, 0x01	; 1
					while (1) { }
				}

				// Generate new filename like "EMG000.TXT"
				char fname[16];
				get_new_filename(fname);
    3880:	84 dd       	rcall	.-1272   	; 0x338a <get_new_filename>
    3882:	4a e0       	ldi	r20, 0x0A	; 10
    3884:	be 01       	movw	r22, r28

				// Open/create the file for writing
				if (f_open(&file, fname, FA_WRITE | FA_CREATE_ALWAYS) != FR_OK) {
    3886:	6f 5f       	subi	r22, 0xFF	; 255
    3888:	7f 4f       	sbci	r23, 0xFF	; 255
    388a:	86 e4       	ldi	r24, 0x46	; 70
    388c:	98 e0       	ldi	r25, 0x08	; 8
    388e:	0e 94 1c 0f 	call	0x1e38	; 0x1e38 <f_open>
    3892:	88 23       	and	r24, r24
    3894:	11 f0       	breq	.+4      	; 0x389a <main+0xbe>
    3896:	ff cf       	rjmp	.-2      	; 0x3896 <main+0xba>
    3898:	69 df       	rcall	.-302    	; 0x376c <ScreenB>
    389a:	64 99       	sbic	0x0c, 4	; 12
					while (1) { }
				}

				// Continuously log data and blink until next touch
				while ( READ(D_IRQ_PINR, D_IRQ_PIN) ) {
					ScreenB();
    389c:	fd cf       	rjmp	.-6      	; 0x3898 <main+0xbc>
    389e:	86 e4       	ldi	r24, 0x46	; 70
					// Open failed ? hang
					while (1) { }
				}

				// Continuously log data and blink until next touch
				while ( READ(D_IRQ_PINR, D_IRQ_PIN) ) {
    38a0:	98 e0       	ldi	r25, 0x08	; 8
    38a2:	0e 94 53 13 	call	0x26a6	; 0x26a6 <f_close>
					ScreenB();
				}

				// Touch detected ? close file, then go back to Screen A
				f_close(&file);
    38a6:	2f ef       	ldi	r18, 0xFF	; 255
    38a8:	80 e7       	ldi	r24, 0x70	; 112
    38aa:	92 e0       	ldi	r25, 0x02	; 2
    38ac:	21 50       	subi	r18, 0x01	; 1
    38ae:	80 40       	sbci	r24, 0x00	; 0
    38b0:	90 40       	sbci	r25, 0x00	; 0
    38b2:	e1 f7       	brne	.-8      	; 0x38ac <main+0xd0>
    38b4:	00 c0       	rjmp	.+0      	; 0x38b6 <main+0xda>
    38b6:	00 00       	nop
    38b8:	64 9b       	sbis	0x0c, 4	; 12
    38ba:	fe cf       	rjmp	.-4      	; 0x38b8 <main+0xdc>
    38bc:	2f ef       	ldi	r18, 0xFF	; 255

				_delay_ms(50);
				while ( !READ(D_IRQ_PINR, D_IRQ_PIN) );
    38be:	80 e7       	ldi	r24, 0x70	; 112
    38c0:	92 e0       	ldi	r25, 0x02	; 2
    38c2:	21 50       	subi	r18, 0x01	; 1
    38c4:	80 40       	sbci	r24, 0x00	; 0
    38c6:	90 40       	sbci	r25, 0x00	; 0
    38c8:	e1 f7       	brne	.-8      	; 0x38c2 <main+0xe6>
    38ca:	00 c0       	rjmp	.+0      	; 0x38cc <main+0xf0>
    38cc:	00 00       	nop
    38ce:	10 92 49 02 	sts	0x0249, r1	; 0x800249 <current_state>
				_delay_ms(50);

				// Return to Screen A
				current_state = STATE_SCREEN_A;
    38d2:	54 db       	rcall	.-2392   	; 0x2f7c <InitCoordinate>
    38d4:	8f e3       	ldi	r24, 0x3F	; 63
				InitCoordinate();
    38d6:	91 e0       	ldi	r25, 0x01	; 1
    38d8:	90 93 04 02 	sts	0x0204, r25	; 0x800204 <x+0x1>
				x = 319;
    38dc:	80 93 03 02 	sts	0x0203, r24	; 0x800203 <x>
    38e0:	10 92 4d 02 	sts	0x024D, r1	; 0x80024d <overThreshold+0x1>
    38e4:	10 92 4c 02 	sts	0x024C, r1	; 0x80024c <overThreshold>
				overThreshold  = 0;
    38e8:	10 92 4b 02 	sts	0x024B, r1	; 0x80024b <underThreshold+0x1>
    38ec:	10 92 4a 02 	sts	0x024A, r1	; 0x80024a <underThreshold>
				underThreshold = 0;
    38f0:	96 cf       	rjmp	.-212    	; 0x381e <main+0x42>

000038f2 <__fixunssfsi>:
    38f2:	70 d0       	rcall	.+224    	; 0x39d4 <__fp_splitA>
    38f4:	88 f0       	brcs	.+34     	; 0x3918 <__fixunssfsi+0x26>
    38f6:	9f 57       	subi	r25, 0x7F	; 127
    38f8:	90 f0       	brcs	.+36     	; 0x391e <__fixunssfsi+0x2c>
    38fa:	b9 2f       	mov	r27, r25
    38fc:	99 27       	eor	r25, r25
    38fe:	b7 51       	subi	r27, 0x17	; 23
    3900:	a0 f0       	brcs	.+40     	; 0x392a <__fixunssfsi+0x38>
    3902:	d1 f0       	breq	.+52     	; 0x3938 <__fixunssfsi+0x46>
    3904:	66 0f       	add	r22, r22
    3906:	77 1f       	adc	r23, r23
    3908:	88 1f       	adc	r24, r24
    390a:	99 1f       	adc	r25, r25
    390c:	1a f0       	brmi	.+6      	; 0x3914 <__fixunssfsi+0x22>
    390e:	ba 95       	dec	r27
    3910:	c9 f7       	brne	.-14     	; 0x3904 <__fixunssfsi+0x12>
    3912:	12 c0       	rjmp	.+36     	; 0x3938 <__fixunssfsi+0x46>
    3914:	b1 30       	cpi	r27, 0x01	; 1
    3916:	81 f0       	breq	.+32     	; 0x3938 <__fixunssfsi+0x46>
    3918:	77 d0       	rcall	.+238    	; 0x3a08 <__fp_zero>
    391a:	b1 e0       	ldi	r27, 0x01	; 1
    391c:	08 95       	ret
    391e:	74 c0       	rjmp	.+232    	; 0x3a08 <__fp_zero>
    3920:	67 2f       	mov	r22, r23
    3922:	78 2f       	mov	r23, r24
    3924:	88 27       	eor	r24, r24
    3926:	b8 5f       	subi	r27, 0xF8	; 248
    3928:	39 f0       	breq	.+14     	; 0x3938 <__fixunssfsi+0x46>
    392a:	b9 3f       	cpi	r27, 0xF9	; 249
    392c:	cc f3       	brlt	.-14     	; 0x3920 <__fixunssfsi+0x2e>
    392e:	86 95       	lsr	r24
    3930:	77 95       	ror	r23
    3932:	67 95       	ror	r22
    3934:	b3 95       	inc	r27
    3936:	d9 f7       	brne	.-10     	; 0x392e <__fixunssfsi+0x3c>
    3938:	3e f4       	brtc	.+14     	; 0x3948 <__fixunssfsi+0x56>
    393a:	90 95       	com	r25
    393c:	80 95       	com	r24
    393e:	70 95       	com	r23
    3940:	61 95       	neg	r22
    3942:	7f 4f       	sbci	r23, 0xFF	; 255
    3944:	8f 4f       	sbci	r24, 0xFF	; 255
    3946:	9f 4f       	sbci	r25, 0xFF	; 255
    3948:	08 95       	ret

0000394a <__floatunsisf>:
    394a:	e8 94       	clt
    394c:	09 c0       	rjmp	.+18     	; 0x3960 <__floatsisf+0x12>

0000394e <__floatsisf>:
    394e:	97 fb       	bst	r25, 7
    3950:	3e f4       	brtc	.+14     	; 0x3960 <__floatsisf+0x12>
    3952:	90 95       	com	r25
    3954:	80 95       	com	r24
    3956:	70 95       	com	r23
    3958:	61 95       	neg	r22
    395a:	7f 4f       	sbci	r23, 0xFF	; 255
    395c:	8f 4f       	sbci	r24, 0xFF	; 255
    395e:	9f 4f       	sbci	r25, 0xFF	; 255
    3960:	99 23       	and	r25, r25
    3962:	a9 f0       	breq	.+42     	; 0x398e <__floatsisf+0x40>
    3964:	f9 2f       	mov	r31, r25
    3966:	96 e9       	ldi	r25, 0x96	; 150
    3968:	bb 27       	eor	r27, r27
    396a:	93 95       	inc	r25
    396c:	f6 95       	lsr	r31
    396e:	87 95       	ror	r24
    3970:	77 95       	ror	r23
    3972:	67 95       	ror	r22
    3974:	b7 95       	ror	r27
    3976:	f1 11       	cpse	r31, r1
    3978:	f8 cf       	rjmp	.-16     	; 0x396a <__floatsisf+0x1c>
    397a:	fa f4       	brpl	.+62     	; 0x39ba <__floatsisf+0x6c>
    397c:	bb 0f       	add	r27, r27
    397e:	11 f4       	brne	.+4      	; 0x3984 <__floatsisf+0x36>
    3980:	60 ff       	sbrs	r22, 0
    3982:	1b c0       	rjmp	.+54     	; 0x39ba <__floatsisf+0x6c>
    3984:	6f 5f       	subi	r22, 0xFF	; 255
    3986:	7f 4f       	sbci	r23, 0xFF	; 255
    3988:	8f 4f       	sbci	r24, 0xFF	; 255
    398a:	9f 4f       	sbci	r25, 0xFF	; 255
    398c:	16 c0       	rjmp	.+44     	; 0x39ba <__floatsisf+0x6c>
    398e:	88 23       	and	r24, r24
    3990:	11 f0       	breq	.+4      	; 0x3996 <__floatsisf+0x48>
    3992:	96 e9       	ldi	r25, 0x96	; 150
    3994:	11 c0       	rjmp	.+34     	; 0x39b8 <__floatsisf+0x6a>
    3996:	77 23       	and	r23, r23
    3998:	21 f0       	breq	.+8      	; 0x39a2 <__floatsisf+0x54>
    399a:	9e e8       	ldi	r25, 0x8E	; 142
    399c:	87 2f       	mov	r24, r23
    399e:	76 2f       	mov	r23, r22
    39a0:	05 c0       	rjmp	.+10     	; 0x39ac <__floatsisf+0x5e>
    39a2:	66 23       	and	r22, r22
    39a4:	71 f0       	breq	.+28     	; 0x39c2 <__floatsisf+0x74>
    39a6:	96 e8       	ldi	r25, 0x86	; 134
    39a8:	86 2f       	mov	r24, r22
    39aa:	70 e0       	ldi	r23, 0x00	; 0
    39ac:	60 e0       	ldi	r22, 0x00	; 0
    39ae:	2a f0       	brmi	.+10     	; 0x39ba <__floatsisf+0x6c>
    39b0:	9a 95       	dec	r25
    39b2:	66 0f       	add	r22, r22
    39b4:	77 1f       	adc	r23, r23
    39b6:	88 1f       	adc	r24, r24
    39b8:	da f7       	brpl	.-10     	; 0x39b0 <__floatsisf+0x62>
    39ba:	88 0f       	add	r24, r24
    39bc:	96 95       	lsr	r25
    39be:	87 95       	ror	r24
    39c0:	97 f9       	bld	r25, 7
    39c2:	08 95       	ret

000039c4 <__fp_split3>:
    39c4:	57 fd       	sbrc	r21, 7
    39c6:	90 58       	subi	r25, 0x80	; 128
    39c8:	44 0f       	add	r20, r20
    39ca:	55 1f       	adc	r21, r21
    39cc:	59 f0       	breq	.+22     	; 0x39e4 <__fp_splitA+0x10>
    39ce:	5f 3f       	cpi	r21, 0xFF	; 255
    39d0:	71 f0       	breq	.+28     	; 0x39ee <__fp_splitA+0x1a>
    39d2:	47 95       	ror	r20

000039d4 <__fp_splitA>:
    39d4:	88 0f       	add	r24, r24
    39d6:	97 fb       	bst	r25, 7
    39d8:	99 1f       	adc	r25, r25
    39da:	61 f0       	breq	.+24     	; 0x39f4 <__fp_splitA+0x20>
    39dc:	9f 3f       	cpi	r25, 0xFF	; 255
    39de:	79 f0       	breq	.+30     	; 0x39fe <__fp_splitA+0x2a>
    39e0:	87 95       	ror	r24
    39e2:	08 95       	ret
    39e4:	12 16       	cp	r1, r18
    39e6:	13 06       	cpc	r1, r19
    39e8:	14 06       	cpc	r1, r20
    39ea:	55 1f       	adc	r21, r21
    39ec:	f2 cf       	rjmp	.-28     	; 0x39d2 <__fp_split3+0xe>
    39ee:	46 95       	lsr	r20
    39f0:	f1 df       	rcall	.-30     	; 0x39d4 <__fp_splitA>
    39f2:	08 c0       	rjmp	.+16     	; 0x3a04 <__fp_splitA+0x30>
    39f4:	16 16       	cp	r1, r22
    39f6:	17 06       	cpc	r1, r23
    39f8:	18 06       	cpc	r1, r24
    39fa:	99 1f       	adc	r25, r25
    39fc:	f1 cf       	rjmp	.-30     	; 0x39e0 <__fp_splitA+0xc>
    39fe:	86 95       	lsr	r24
    3a00:	71 05       	cpc	r23, r1
    3a02:	61 05       	cpc	r22, r1
    3a04:	08 94       	sec
    3a06:	08 95       	ret

00003a08 <__fp_zero>:
    3a08:	e8 94       	clt

00003a0a <__fp_szero>:
    3a0a:	bb 27       	eor	r27, r27
    3a0c:	66 27       	eor	r22, r22
    3a0e:	77 27       	eor	r23, r23
    3a10:	cb 01       	movw	r24, r22
    3a12:	97 f9       	bld	r25, 7
    3a14:	08 95       	ret
    3a16:	11 f4       	brne	.+4      	; 0x3a1c <__fp_szero+0x12>
    3a18:	0e f4       	brtc	.+2      	; 0x3a1c <__fp_szero+0x12>
    3a1a:	4d c0       	rjmp	.+154    	; 0x3ab6 <__fp_nan>
    3a1c:	3e c0       	rjmp	.+124    	; 0x3a9a <__fp_mpack>

00003a1e <sqrt>:
    3a1e:	da df       	rcall	.-76     	; 0x39d4 <__fp_splitA>
    3a20:	d0 f3       	brcs	.-12     	; 0x3a16 <__fp_szero+0xc>
    3a22:	99 23       	and	r25, r25
    3a24:	d9 f3       	breq	.-10     	; 0x3a1c <__fp_szero+0x12>
    3a26:	ce f3       	brts	.-14     	; 0x3a1a <__fp_szero+0x10>
    3a28:	9f 57       	subi	r25, 0x7F	; 127
    3a2a:	55 0b       	sbc	r21, r21
    3a2c:	87 ff       	sbrs	r24, 7
    3a2e:	46 d0       	rcall	.+140    	; 0x3abc <__fp_norm2>
    3a30:	00 24       	eor	r0, r0
    3a32:	a0 e6       	ldi	r26, 0x60	; 96
    3a34:	40 ea       	ldi	r20, 0xA0	; 160
    3a36:	90 01       	movw	r18, r0
    3a38:	80 58       	subi	r24, 0x80	; 128
    3a3a:	56 95       	lsr	r21
    3a3c:	97 95       	ror	r25
    3a3e:	28 f4       	brcc	.+10     	; 0x3a4a <sqrt+0x2c>
    3a40:	80 5c       	subi	r24, 0xC0	; 192
    3a42:	66 0f       	add	r22, r22
    3a44:	77 1f       	adc	r23, r23
    3a46:	88 1f       	adc	r24, r24
    3a48:	20 f0       	brcs	.+8      	; 0x3a52 <sqrt+0x34>
    3a4a:	26 17       	cp	r18, r22
    3a4c:	37 07       	cpc	r19, r23
    3a4e:	48 07       	cpc	r20, r24
    3a50:	30 f4       	brcc	.+12     	; 0x3a5e <sqrt+0x40>
    3a52:	62 1b       	sub	r22, r18
    3a54:	73 0b       	sbc	r23, r19
    3a56:	84 0b       	sbc	r24, r20
    3a58:	20 29       	or	r18, r0
    3a5a:	31 29       	or	r19, r1
    3a5c:	4a 2b       	or	r20, r26
    3a5e:	a6 95       	lsr	r26
    3a60:	17 94       	ror	r1
    3a62:	07 94       	ror	r0
    3a64:	20 25       	eor	r18, r0
    3a66:	31 25       	eor	r19, r1
    3a68:	4a 27       	eor	r20, r26
    3a6a:	58 f7       	brcc	.-42     	; 0x3a42 <sqrt+0x24>
    3a6c:	66 0f       	add	r22, r22
    3a6e:	77 1f       	adc	r23, r23
    3a70:	88 1f       	adc	r24, r24
    3a72:	20 f0       	brcs	.+8      	; 0x3a7c <sqrt+0x5e>
    3a74:	26 17       	cp	r18, r22
    3a76:	37 07       	cpc	r19, r23
    3a78:	48 07       	cpc	r20, r24
    3a7a:	30 f4       	brcc	.+12     	; 0x3a88 <sqrt+0x6a>
    3a7c:	62 0b       	sbc	r22, r18
    3a7e:	73 0b       	sbc	r23, r19
    3a80:	84 0b       	sbc	r24, r20
    3a82:	20 0d       	add	r18, r0
    3a84:	31 1d       	adc	r19, r1
    3a86:	41 1d       	adc	r20, r1
    3a88:	a0 95       	com	r26
    3a8a:	81 f7       	brne	.-32     	; 0x3a6c <sqrt+0x4e>
    3a8c:	b9 01       	movw	r22, r18
    3a8e:	84 2f       	mov	r24, r20
    3a90:	91 58       	subi	r25, 0x81	; 129
    3a92:	88 0f       	add	r24, r24
    3a94:	96 95       	lsr	r25
    3a96:	87 95       	ror	r24
    3a98:	08 95       	ret

00003a9a <__fp_mpack>:
    3a9a:	9f 3f       	cpi	r25, 0xFF	; 255
    3a9c:	31 f0       	breq	.+12     	; 0x3aaa <__fp_mpack_finite+0xc>

00003a9e <__fp_mpack_finite>:
    3a9e:	91 50       	subi	r25, 0x01	; 1
    3aa0:	20 f4       	brcc	.+8      	; 0x3aaa <__fp_mpack_finite+0xc>
    3aa2:	87 95       	ror	r24
    3aa4:	77 95       	ror	r23
    3aa6:	67 95       	ror	r22
    3aa8:	b7 95       	ror	r27
    3aaa:	88 0f       	add	r24, r24
    3aac:	91 1d       	adc	r25, r1
    3aae:	96 95       	lsr	r25
    3ab0:	87 95       	ror	r24
    3ab2:	97 f9       	bld	r25, 7
    3ab4:	08 95       	ret

00003ab6 <__fp_nan>:
    3ab6:	9f ef       	ldi	r25, 0xFF	; 255
    3ab8:	80 ec       	ldi	r24, 0xC0	; 192
    3aba:	08 95       	ret

00003abc <__fp_norm2>:
    3abc:	91 50       	subi	r25, 0x01	; 1
    3abe:	50 40       	sbci	r21, 0x00	; 0
    3ac0:	66 0f       	add	r22, r22
    3ac2:	77 1f       	adc	r23, r23
    3ac4:	88 1f       	adc	r24, r24
    3ac6:	d2 f7       	brpl	.-12     	; 0x3abc <__fp_norm2>
    3ac8:	08 95       	ret

00003aca <__udivmodsi4>:
    3aca:	a1 e2       	ldi	r26, 0x21	; 33
    3acc:	1a 2e       	mov	r1, r26
    3ace:	aa 1b       	sub	r26, r26
    3ad0:	bb 1b       	sub	r27, r27
    3ad2:	fd 01       	movw	r30, r26
    3ad4:	0d c0       	rjmp	.+26     	; 0x3af0 <__udivmodsi4_ep>

00003ad6 <__udivmodsi4_loop>:
    3ad6:	aa 1f       	adc	r26, r26
    3ad8:	bb 1f       	adc	r27, r27
    3ada:	ee 1f       	adc	r30, r30
    3adc:	ff 1f       	adc	r31, r31
    3ade:	a2 17       	cp	r26, r18
    3ae0:	b3 07       	cpc	r27, r19
    3ae2:	e4 07       	cpc	r30, r20
    3ae4:	f5 07       	cpc	r31, r21
    3ae6:	20 f0       	brcs	.+8      	; 0x3af0 <__udivmodsi4_ep>
    3ae8:	a2 1b       	sub	r26, r18
    3aea:	b3 0b       	sbc	r27, r19
    3aec:	e4 0b       	sbc	r30, r20
    3aee:	f5 0b       	sbc	r31, r21

00003af0 <__udivmodsi4_ep>:
    3af0:	66 1f       	adc	r22, r22
    3af2:	77 1f       	adc	r23, r23
    3af4:	88 1f       	adc	r24, r24
    3af6:	99 1f       	adc	r25, r25
    3af8:	1a 94       	dec	r1
    3afa:	69 f7       	brne	.-38     	; 0x3ad6 <__udivmodsi4_loop>
    3afc:	60 95       	com	r22
    3afe:	70 95       	com	r23
    3b00:	80 95       	com	r24
    3b02:	90 95       	com	r25
    3b04:	9b 01       	movw	r18, r22
    3b06:	ac 01       	movw	r20, r24
    3b08:	bd 01       	movw	r22, r26
    3b0a:	cf 01       	movw	r24, r30
    3b0c:	08 95       	ret

00003b0e <__mulhisi3>:
    3b0e:	05 d0       	rcall	.+10     	; 0x3b1a <__umulhisi3>
    3b10:	33 23       	and	r19, r19
    3b12:	12 f4       	brpl	.+4      	; 0x3b18 <__mulhisi3+0xa>
    3b14:	8a 1b       	sub	r24, r26
    3b16:	9b 0b       	sbc	r25, r27
    3b18:	10 c0       	rjmp	.+32     	; 0x3b3a <__usmulhisi3_tail>

00003b1a <__umulhisi3>:
    3b1a:	a2 9f       	mul	r26, r18
    3b1c:	b0 01       	movw	r22, r0
    3b1e:	b3 9f       	mul	r27, r19
    3b20:	c0 01       	movw	r24, r0
    3b22:	a3 9f       	mul	r26, r19
    3b24:	70 0d       	add	r23, r0
    3b26:	81 1d       	adc	r24, r1
    3b28:	11 24       	eor	r1, r1
    3b2a:	91 1d       	adc	r25, r1
    3b2c:	b2 9f       	mul	r27, r18
    3b2e:	70 0d       	add	r23, r0
    3b30:	81 1d       	adc	r24, r1
    3b32:	11 24       	eor	r1, r1
    3b34:	91 1d       	adc	r25, r1
    3b36:	08 95       	ret

00003b38 <__usmulhisi3>:
    3b38:	f0 df       	rcall	.-32     	; 0x3b1a <__umulhisi3>

00003b3a <__usmulhisi3_tail>:
    3b3a:	b7 ff       	sbrs	r27, 7
    3b3c:	08 95       	ret
    3b3e:	82 1b       	sub	r24, r18
    3b40:	93 0b       	sbc	r25, r19
    3b42:	08 95       	ret

00003b44 <__muluhisi3>:
    3b44:	ea df       	rcall	.-44     	; 0x3b1a <__umulhisi3>
    3b46:	a5 9f       	mul	r26, r21
    3b48:	90 0d       	add	r25, r0
    3b4a:	b4 9f       	mul	r27, r20
    3b4c:	90 0d       	add	r25, r0
    3b4e:	a4 9f       	mul	r26, r20
    3b50:	80 0d       	add	r24, r0
    3b52:	91 1d       	adc	r25, r1
    3b54:	11 24       	eor	r1, r1
    3b56:	08 95       	ret

00003b58 <__itoa_ncheck>:
    3b58:	bb 27       	eor	r27, r27
    3b5a:	4a 30       	cpi	r20, 0x0A	; 10
    3b5c:	31 f4       	brne	.+12     	; 0x3b6a <__itoa_ncheck+0x12>
    3b5e:	99 23       	and	r25, r25
    3b60:	22 f4       	brpl	.+8      	; 0x3b6a <__itoa_ncheck+0x12>
    3b62:	bd e2       	ldi	r27, 0x2D	; 45
    3b64:	90 95       	com	r25
    3b66:	81 95       	neg	r24
    3b68:	9f 4f       	sbci	r25, 0xFF	; 255
    3b6a:	01 c0       	rjmp	.+2      	; 0x3b6e <__utoa_common>

00003b6c <__utoa_ncheck>:
    3b6c:	bb 27       	eor	r27, r27

00003b6e <__utoa_common>:
    3b6e:	fb 01       	movw	r30, r22
    3b70:	55 27       	eor	r21, r21
    3b72:	aa 27       	eor	r26, r26
    3b74:	88 0f       	add	r24, r24
    3b76:	99 1f       	adc	r25, r25
    3b78:	aa 1f       	adc	r26, r26
    3b7a:	a4 17       	cp	r26, r20
    3b7c:	10 f0       	brcs	.+4      	; 0x3b82 <__utoa_common+0x14>
    3b7e:	a4 1b       	sub	r26, r20
    3b80:	83 95       	inc	r24
    3b82:	50 51       	subi	r21, 0x10	; 16
    3b84:	b9 f7       	brne	.-18     	; 0x3b74 <__utoa_common+0x6>
    3b86:	a0 5d       	subi	r26, 0xD0	; 208
    3b88:	aa 33       	cpi	r26, 0x3A	; 58
    3b8a:	08 f0       	brcs	.+2      	; 0x3b8e <__utoa_common+0x20>
    3b8c:	a9 5d       	subi	r26, 0xD9	; 217
    3b8e:	a1 93       	st	Z+, r26
    3b90:	00 97       	sbiw	r24, 0x00	; 0
    3b92:	79 f7       	brne	.-34     	; 0x3b72 <__utoa_common+0x4>
    3b94:	b1 11       	cpse	r27, r1
    3b96:	b1 93       	st	Z+, r27
    3b98:	11 92       	st	Z+, r1
    3b9a:	cb 01       	movw	r24, r22
    3b9c:	41 c2       	rjmp	.+1154   	; 0x4020 <strrev>

00003b9e <sprintf>:
    3b9e:	0f 93       	push	r16
    3ba0:	1f 93       	push	r17
    3ba2:	cf 93       	push	r28
    3ba4:	df 93       	push	r29
    3ba6:	cd b7       	in	r28, 0x3d	; 61
    3ba8:	de b7       	in	r29, 0x3e	; 62
    3baa:	2e 97       	sbiw	r28, 0x0e	; 14
    3bac:	0f b6       	in	r0, 0x3f	; 63
    3bae:	f8 94       	cli
    3bb0:	de bf       	out	0x3e, r29	; 62
    3bb2:	0f be       	out	0x3f, r0	; 63
    3bb4:	cd bf       	out	0x3d, r28	; 61
    3bb6:	0e 89       	ldd	r16, Y+22	; 0x16
    3bb8:	1f 89       	ldd	r17, Y+23	; 0x17
    3bba:	86 e0       	ldi	r24, 0x06	; 6
    3bbc:	8c 83       	std	Y+4, r24	; 0x04
    3bbe:	1a 83       	std	Y+2, r17	; 0x02
    3bc0:	09 83       	std	Y+1, r16	; 0x01
    3bc2:	8f ef       	ldi	r24, 0xFF	; 255
    3bc4:	9f e7       	ldi	r25, 0x7F	; 127
    3bc6:	9e 83       	std	Y+6, r25	; 0x06
    3bc8:	8d 83       	std	Y+5, r24	; 0x05
    3bca:	ae 01       	movw	r20, r28
    3bcc:	46 5e       	subi	r20, 0xE6	; 230
    3bce:	5f 4f       	sbci	r21, 0xFF	; 255
    3bd0:	68 8d       	ldd	r22, Y+24	; 0x18
    3bd2:	79 8d       	ldd	r23, Y+25	; 0x19
    3bd4:	ce 01       	movw	r24, r28
    3bd6:	01 96       	adiw	r24, 0x01	; 1
    3bd8:	10 d0       	rcall	.+32     	; 0x3bfa <vfprintf>
    3bda:	ef 81       	ldd	r30, Y+7	; 0x07
    3bdc:	f8 85       	ldd	r31, Y+8	; 0x08
    3bde:	e0 0f       	add	r30, r16
    3be0:	f1 1f       	adc	r31, r17
    3be2:	10 82       	st	Z, r1
    3be4:	2e 96       	adiw	r28, 0x0e	; 14
    3be6:	0f b6       	in	r0, 0x3f	; 63
    3be8:	f8 94       	cli
    3bea:	de bf       	out	0x3e, r29	; 62
    3bec:	0f be       	out	0x3f, r0	; 63
    3bee:	cd bf       	out	0x3d, r28	; 61
    3bf0:	df 91       	pop	r29
    3bf2:	cf 91       	pop	r28
    3bf4:	1f 91       	pop	r17
    3bf6:	0f 91       	pop	r16
    3bf8:	08 95       	ret

00003bfa <vfprintf>:
    3bfa:	2f 92       	push	r2
    3bfc:	3f 92       	push	r3
    3bfe:	4f 92       	push	r4
    3c00:	5f 92       	push	r5
    3c02:	6f 92       	push	r6
    3c04:	7f 92       	push	r7
    3c06:	8f 92       	push	r8
    3c08:	9f 92       	push	r9
    3c0a:	af 92       	push	r10
    3c0c:	bf 92       	push	r11
    3c0e:	cf 92       	push	r12
    3c10:	df 92       	push	r13
    3c12:	ef 92       	push	r14
    3c14:	ff 92       	push	r15
    3c16:	0f 93       	push	r16
    3c18:	1f 93       	push	r17
    3c1a:	cf 93       	push	r28
    3c1c:	df 93       	push	r29
    3c1e:	cd b7       	in	r28, 0x3d	; 61
    3c20:	de b7       	in	r29, 0x3e	; 62
    3c22:	2b 97       	sbiw	r28, 0x0b	; 11
    3c24:	0f b6       	in	r0, 0x3f	; 63
    3c26:	f8 94       	cli
    3c28:	de bf       	out	0x3e, r29	; 62
    3c2a:	0f be       	out	0x3f, r0	; 63
    3c2c:	cd bf       	out	0x3d, r28	; 61
    3c2e:	6c 01       	movw	r12, r24
    3c30:	7b 01       	movw	r14, r22
    3c32:	8a 01       	movw	r16, r20
    3c34:	fc 01       	movw	r30, r24
    3c36:	17 82       	std	Z+7, r1	; 0x07
    3c38:	16 82       	std	Z+6, r1	; 0x06
    3c3a:	83 81       	ldd	r24, Z+3	; 0x03
    3c3c:	81 ff       	sbrs	r24, 1
    3c3e:	bf c1       	rjmp	.+894    	; 0x3fbe <vfprintf+0x3c4>
    3c40:	ce 01       	movw	r24, r28
    3c42:	01 96       	adiw	r24, 0x01	; 1
    3c44:	3c 01       	movw	r6, r24
    3c46:	f6 01       	movw	r30, r12
    3c48:	93 81       	ldd	r25, Z+3	; 0x03
    3c4a:	f7 01       	movw	r30, r14
    3c4c:	93 fd       	sbrc	r25, 3
    3c4e:	85 91       	lpm	r24, Z+
    3c50:	93 ff       	sbrs	r25, 3
    3c52:	81 91       	ld	r24, Z+
    3c54:	7f 01       	movw	r14, r30
    3c56:	88 23       	and	r24, r24
    3c58:	09 f4       	brne	.+2      	; 0x3c5c <vfprintf+0x62>
    3c5a:	ad c1       	rjmp	.+858    	; 0x3fb6 <vfprintf+0x3bc>
    3c5c:	85 32       	cpi	r24, 0x25	; 37
    3c5e:	39 f4       	brne	.+14     	; 0x3c6e <vfprintf+0x74>
    3c60:	93 fd       	sbrc	r25, 3
    3c62:	85 91       	lpm	r24, Z+
    3c64:	93 ff       	sbrs	r25, 3
    3c66:	81 91       	ld	r24, Z+
    3c68:	7f 01       	movw	r14, r30
    3c6a:	85 32       	cpi	r24, 0x25	; 37
    3c6c:	21 f4       	brne	.+8      	; 0x3c76 <vfprintf+0x7c>
    3c6e:	b6 01       	movw	r22, r12
    3c70:	90 e0       	ldi	r25, 0x00	; 0
    3c72:	e6 d1       	rcall	.+972    	; 0x4040 <fputc>
    3c74:	e8 cf       	rjmp	.-48     	; 0x3c46 <vfprintf+0x4c>
    3c76:	91 2c       	mov	r9, r1
    3c78:	21 2c       	mov	r2, r1
    3c7a:	31 2c       	mov	r3, r1
    3c7c:	ff e1       	ldi	r31, 0x1F	; 31
    3c7e:	f3 15       	cp	r31, r3
    3c80:	d8 f0       	brcs	.+54     	; 0x3cb8 <vfprintf+0xbe>
    3c82:	8b 32       	cpi	r24, 0x2B	; 43
    3c84:	79 f0       	breq	.+30     	; 0x3ca4 <vfprintf+0xaa>
    3c86:	38 f4       	brcc	.+14     	; 0x3c96 <vfprintf+0x9c>
    3c88:	80 32       	cpi	r24, 0x20	; 32
    3c8a:	79 f0       	breq	.+30     	; 0x3caa <vfprintf+0xb0>
    3c8c:	83 32       	cpi	r24, 0x23	; 35
    3c8e:	a1 f4       	brne	.+40     	; 0x3cb8 <vfprintf+0xbe>
    3c90:	23 2d       	mov	r18, r3
    3c92:	20 61       	ori	r18, 0x10	; 16
    3c94:	1d c0       	rjmp	.+58     	; 0x3cd0 <vfprintf+0xd6>
    3c96:	8d 32       	cpi	r24, 0x2D	; 45
    3c98:	61 f0       	breq	.+24     	; 0x3cb2 <vfprintf+0xb8>
    3c9a:	80 33       	cpi	r24, 0x30	; 48
    3c9c:	69 f4       	brne	.+26     	; 0x3cb8 <vfprintf+0xbe>
    3c9e:	23 2d       	mov	r18, r3
    3ca0:	21 60       	ori	r18, 0x01	; 1
    3ca2:	16 c0       	rjmp	.+44     	; 0x3cd0 <vfprintf+0xd6>
    3ca4:	83 2d       	mov	r24, r3
    3ca6:	82 60       	ori	r24, 0x02	; 2
    3ca8:	38 2e       	mov	r3, r24
    3caa:	e3 2d       	mov	r30, r3
    3cac:	e4 60       	ori	r30, 0x04	; 4
    3cae:	3e 2e       	mov	r3, r30
    3cb0:	2a c0       	rjmp	.+84     	; 0x3d06 <vfprintf+0x10c>
    3cb2:	f3 2d       	mov	r31, r3
    3cb4:	f8 60       	ori	r31, 0x08	; 8
    3cb6:	1d c0       	rjmp	.+58     	; 0x3cf2 <vfprintf+0xf8>
    3cb8:	37 fc       	sbrc	r3, 7
    3cba:	2d c0       	rjmp	.+90     	; 0x3d16 <vfprintf+0x11c>
    3cbc:	20 ed       	ldi	r18, 0xD0	; 208
    3cbe:	28 0f       	add	r18, r24
    3cc0:	2a 30       	cpi	r18, 0x0A	; 10
    3cc2:	40 f0       	brcs	.+16     	; 0x3cd4 <vfprintf+0xda>
    3cc4:	8e 32       	cpi	r24, 0x2E	; 46
    3cc6:	b9 f4       	brne	.+46     	; 0x3cf6 <vfprintf+0xfc>
    3cc8:	36 fc       	sbrc	r3, 6
    3cca:	75 c1       	rjmp	.+746    	; 0x3fb6 <vfprintf+0x3bc>
    3ccc:	23 2d       	mov	r18, r3
    3cce:	20 64       	ori	r18, 0x40	; 64
    3cd0:	32 2e       	mov	r3, r18
    3cd2:	19 c0       	rjmp	.+50     	; 0x3d06 <vfprintf+0x10c>
    3cd4:	36 fe       	sbrs	r3, 6
    3cd6:	06 c0       	rjmp	.+12     	; 0x3ce4 <vfprintf+0xea>
    3cd8:	8a e0       	ldi	r24, 0x0A	; 10
    3cda:	98 9e       	mul	r9, r24
    3cdc:	20 0d       	add	r18, r0
    3cde:	11 24       	eor	r1, r1
    3ce0:	92 2e       	mov	r9, r18
    3ce2:	11 c0       	rjmp	.+34     	; 0x3d06 <vfprintf+0x10c>
    3ce4:	ea e0       	ldi	r30, 0x0A	; 10
    3ce6:	2e 9e       	mul	r2, r30
    3ce8:	20 0d       	add	r18, r0
    3cea:	11 24       	eor	r1, r1
    3cec:	22 2e       	mov	r2, r18
    3cee:	f3 2d       	mov	r31, r3
    3cf0:	f0 62       	ori	r31, 0x20	; 32
    3cf2:	3f 2e       	mov	r3, r31
    3cf4:	08 c0       	rjmp	.+16     	; 0x3d06 <vfprintf+0x10c>
    3cf6:	8c 36       	cpi	r24, 0x6C	; 108
    3cf8:	21 f4       	brne	.+8      	; 0x3d02 <vfprintf+0x108>
    3cfa:	83 2d       	mov	r24, r3
    3cfc:	80 68       	ori	r24, 0x80	; 128
    3cfe:	38 2e       	mov	r3, r24
    3d00:	02 c0       	rjmp	.+4      	; 0x3d06 <vfprintf+0x10c>
    3d02:	88 36       	cpi	r24, 0x68	; 104
    3d04:	41 f4       	brne	.+16     	; 0x3d16 <vfprintf+0x11c>
    3d06:	f7 01       	movw	r30, r14
    3d08:	93 fd       	sbrc	r25, 3
    3d0a:	85 91       	lpm	r24, Z+
    3d0c:	93 ff       	sbrs	r25, 3
    3d0e:	81 91       	ld	r24, Z+
    3d10:	7f 01       	movw	r14, r30
    3d12:	81 11       	cpse	r24, r1
    3d14:	b3 cf       	rjmp	.-154    	; 0x3c7c <vfprintf+0x82>
    3d16:	98 2f       	mov	r25, r24
    3d18:	9f 7d       	andi	r25, 0xDF	; 223
    3d1a:	95 54       	subi	r25, 0x45	; 69
    3d1c:	93 30       	cpi	r25, 0x03	; 3
    3d1e:	28 f4       	brcc	.+10     	; 0x3d2a <vfprintf+0x130>
    3d20:	0c 5f       	subi	r16, 0xFC	; 252
    3d22:	1f 4f       	sbci	r17, 0xFF	; 255
    3d24:	9f e3       	ldi	r25, 0x3F	; 63
    3d26:	99 83       	std	Y+1, r25	; 0x01
    3d28:	0d c0       	rjmp	.+26     	; 0x3d44 <vfprintf+0x14a>
    3d2a:	83 36       	cpi	r24, 0x63	; 99
    3d2c:	31 f0       	breq	.+12     	; 0x3d3a <vfprintf+0x140>
    3d2e:	83 37       	cpi	r24, 0x73	; 115
    3d30:	71 f0       	breq	.+28     	; 0x3d4e <vfprintf+0x154>
    3d32:	83 35       	cpi	r24, 0x53	; 83
    3d34:	09 f0       	breq	.+2      	; 0x3d38 <vfprintf+0x13e>
    3d36:	55 c0       	rjmp	.+170    	; 0x3de2 <vfprintf+0x1e8>
    3d38:	20 c0       	rjmp	.+64     	; 0x3d7a <vfprintf+0x180>
    3d3a:	f8 01       	movw	r30, r16
    3d3c:	80 81       	ld	r24, Z
    3d3e:	89 83       	std	Y+1, r24	; 0x01
    3d40:	0e 5f       	subi	r16, 0xFE	; 254
    3d42:	1f 4f       	sbci	r17, 0xFF	; 255
    3d44:	88 24       	eor	r8, r8
    3d46:	83 94       	inc	r8
    3d48:	91 2c       	mov	r9, r1
    3d4a:	53 01       	movw	r10, r6
    3d4c:	12 c0       	rjmp	.+36     	; 0x3d72 <vfprintf+0x178>
    3d4e:	28 01       	movw	r4, r16
    3d50:	f2 e0       	ldi	r31, 0x02	; 2
    3d52:	4f 0e       	add	r4, r31
    3d54:	51 1c       	adc	r5, r1
    3d56:	f8 01       	movw	r30, r16
    3d58:	a0 80       	ld	r10, Z
    3d5a:	b1 80       	ldd	r11, Z+1	; 0x01
    3d5c:	36 fe       	sbrs	r3, 6
    3d5e:	03 c0       	rjmp	.+6      	; 0x3d66 <vfprintf+0x16c>
    3d60:	69 2d       	mov	r22, r9
    3d62:	70 e0       	ldi	r23, 0x00	; 0
    3d64:	02 c0       	rjmp	.+4      	; 0x3d6a <vfprintf+0x170>
    3d66:	6f ef       	ldi	r22, 0xFF	; 255
    3d68:	7f ef       	ldi	r23, 0xFF	; 255
    3d6a:	c5 01       	movw	r24, r10
    3d6c:	4e d1       	rcall	.+668    	; 0x400a <strnlen>
    3d6e:	4c 01       	movw	r8, r24
    3d70:	82 01       	movw	r16, r4
    3d72:	f3 2d       	mov	r31, r3
    3d74:	ff 77       	andi	r31, 0x7F	; 127
    3d76:	3f 2e       	mov	r3, r31
    3d78:	15 c0       	rjmp	.+42     	; 0x3da4 <vfprintf+0x1aa>
    3d7a:	28 01       	movw	r4, r16
    3d7c:	22 e0       	ldi	r18, 0x02	; 2
    3d7e:	42 0e       	add	r4, r18
    3d80:	51 1c       	adc	r5, r1
    3d82:	f8 01       	movw	r30, r16
    3d84:	a0 80       	ld	r10, Z
    3d86:	b1 80       	ldd	r11, Z+1	; 0x01
    3d88:	36 fe       	sbrs	r3, 6
    3d8a:	03 c0       	rjmp	.+6      	; 0x3d92 <vfprintf+0x198>
    3d8c:	69 2d       	mov	r22, r9
    3d8e:	70 e0       	ldi	r23, 0x00	; 0
    3d90:	02 c0       	rjmp	.+4      	; 0x3d96 <vfprintf+0x19c>
    3d92:	6f ef       	ldi	r22, 0xFF	; 255
    3d94:	7f ef       	ldi	r23, 0xFF	; 255
    3d96:	c5 01       	movw	r24, r10
    3d98:	2d d1       	rcall	.+602    	; 0x3ff4 <strnlen_P>
    3d9a:	4c 01       	movw	r8, r24
    3d9c:	f3 2d       	mov	r31, r3
    3d9e:	f0 68       	ori	r31, 0x80	; 128
    3da0:	3f 2e       	mov	r3, r31
    3da2:	82 01       	movw	r16, r4
    3da4:	33 fc       	sbrc	r3, 3
    3da6:	19 c0       	rjmp	.+50     	; 0x3dda <vfprintf+0x1e0>
    3da8:	82 2d       	mov	r24, r2
    3daa:	90 e0       	ldi	r25, 0x00	; 0
    3dac:	88 16       	cp	r8, r24
    3dae:	99 06       	cpc	r9, r25
    3db0:	a0 f4       	brcc	.+40     	; 0x3dda <vfprintf+0x1e0>
    3db2:	b6 01       	movw	r22, r12
    3db4:	80 e2       	ldi	r24, 0x20	; 32
    3db6:	90 e0       	ldi	r25, 0x00	; 0
    3db8:	43 d1       	rcall	.+646    	; 0x4040 <fputc>
    3dba:	2a 94       	dec	r2
    3dbc:	f5 cf       	rjmp	.-22     	; 0x3da8 <vfprintf+0x1ae>
    3dbe:	f5 01       	movw	r30, r10
    3dc0:	37 fc       	sbrc	r3, 7
    3dc2:	85 91       	lpm	r24, Z+
    3dc4:	37 fe       	sbrs	r3, 7
    3dc6:	81 91       	ld	r24, Z+
    3dc8:	5f 01       	movw	r10, r30
    3dca:	b6 01       	movw	r22, r12
    3dcc:	90 e0       	ldi	r25, 0x00	; 0
    3dce:	38 d1       	rcall	.+624    	; 0x4040 <fputc>
    3dd0:	21 10       	cpse	r2, r1
    3dd2:	2a 94       	dec	r2
    3dd4:	21 e0       	ldi	r18, 0x01	; 1
    3dd6:	82 1a       	sub	r8, r18
    3dd8:	91 08       	sbc	r9, r1
    3dda:	81 14       	cp	r8, r1
    3ddc:	91 04       	cpc	r9, r1
    3dde:	79 f7       	brne	.-34     	; 0x3dbe <vfprintf+0x1c4>
    3de0:	e1 c0       	rjmp	.+450    	; 0x3fa4 <vfprintf+0x3aa>
    3de2:	84 36       	cpi	r24, 0x64	; 100
    3de4:	11 f0       	breq	.+4      	; 0x3dea <vfprintf+0x1f0>
    3de6:	89 36       	cpi	r24, 0x69	; 105
    3de8:	39 f5       	brne	.+78     	; 0x3e38 <vfprintf+0x23e>
    3dea:	f8 01       	movw	r30, r16
    3dec:	37 fe       	sbrs	r3, 7
    3dee:	07 c0       	rjmp	.+14     	; 0x3dfe <vfprintf+0x204>
    3df0:	60 81       	ld	r22, Z
    3df2:	71 81       	ldd	r23, Z+1	; 0x01
    3df4:	82 81       	ldd	r24, Z+2	; 0x02
    3df6:	93 81       	ldd	r25, Z+3	; 0x03
    3df8:	0c 5f       	subi	r16, 0xFC	; 252
    3dfa:	1f 4f       	sbci	r17, 0xFF	; 255
    3dfc:	08 c0       	rjmp	.+16     	; 0x3e0e <vfprintf+0x214>
    3dfe:	60 81       	ld	r22, Z
    3e00:	71 81       	ldd	r23, Z+1	; 0x01
    3e02:	07 2e       	mov	r0, r23
    3e04:	00 0c       	add	r0, r0
    3e06:	88 0b       	sbc	r24, r24
    3e08:	99 0b       	sbc	r25, r25
    3e0a:	0e 5f       	subi	r16, 0xFE	; 254
    3e0c:	1f 4f       	sbci	r17, 0xFF	; 255
    3e0e:	f3 2d       	mov	r31, r3
    3e10:	ff 76       	andi	r31, 0x6F	; 111
    3e12:	3f 2e       	mov	r3, r31
    3e14:	97 ff       	sbrs	r25, 7
    3e16:	09 c0       	rjmp	.+18     	; 0x3e2a <vfprintf+0x230>
    3e18:	90 95       	com	r25
    3e1a:	80 95       	com	r24
    3e1c:	70 95       	com	r23
    3e1e:	61 95       	neg	r22
    3e20:	7f 4f       	sbci	r23, 0xFF	; 255
    3e22:	8f 4f       	sbci	r24, 0xFF	; 255
    3e24:	9f 4f       	sbci	r25, 0xFF	; 255
    3e26:	f0 68       	ori	r31, 0x80	; 128
    3e28:	3f 2e       	mov	r3, r31
    3e2a:	2a e0       	ldi	r18, 0x0A	; 10
    3e2c:	30 e0       	ldi	r19, 0x00	; 0
    3e2e:	a3 01       	movw	r20, r6
    3e30:	43 d1       	rcall	.+646    	; 0x40b8 <__ultoa_invert>
    3e32:	88 2e       	mov	r8, r24
    3e34:	86 18       	sub	r8, r6
    3e36:	44 c0       	rjmp	.+136    	; 0x3ec0 <vfprintf+0x2c6>
    3e38:	85 37       	cpi	r24, 0x75	; 117
    3e3a:	31 f4       	brne	.+12     	; 0x3e48 <vfprintf+0x24e>
    3e3c:	23 2d       	mov	r18, r3
    3e3e:	2f 7e       	andi	r18, 0xEF	; 239
    3e40:	b2 2e       	mov	r11, r18
    3e42:	2a e0       	ldi	r18, 0x0A	; 10
    3e44:	30 e0       	ldi	r19, 0x00	; 0
    3e46:	25 c0       	rjmp	.+74     	; 0x3e92 <vfprintf+0x298>
    3e48:	93 2d       	mov	r25, r3
    3e4a:	99 7f       	andi	r25, 0xF9	; 249
    3e4c:	b9 2e       	mov	r11, r25
    3e4e:	8f 36       	cpi	r24, 0x6F	; 111
    3e50:	c1 f0       	breq	.+48     	; 0x3e82 <vfprintf+0x288>
    3e52:	18 f4       	brcc	.+6      	; 0x3e5a <vfprintf+0x260>
    3e54:	88 35       	cpi	r24, 0x58	; 88
    3e56:	79 f0       	breq	.+30     	; 0x3e76 <vfprintf+0x27c>
    3e58:	ae c0       	rjmp	.+348    	; 0x3fb6 <vfprintf+0x3bc>
    3e5a:	80 37       	cpi	r24, 0x70	; 112
    3e5c:	19 f0       	breq	.+6      	; 0x3e64 <vfprintf+0x26a>
    3e5e:	88 37       	cpi	r24, 0x78	; 120
    3e60:	21 f0       	breq	.+8      	; 0x3e6a <vfprintf+0x270>
    3e62:	a9 c0       	rjmp	.+338    	; 0x3fb6 <vfprintf+0x3bc>
    3e64:	e9 2f       	mov	r30, r25
    3e66:	e0 61       	ori	r30, 0x10	; 16
    3e68:	be 2e       	mov	r11, r30
    3e6a:	b4 fe       	sbrs	r11, 4
    3e6c:	0d c0       	rjmp	.+26     	; 0x3e88 <vfprintf+0x28e>
    3e6e:	fb 2d       	mov	r31, r11
    3e70:	f4 60       	ori	r31, 0x04	; 4
    3e72:	bf 2e       	mov	r11, r31
    3e74:	09 c0       	rjmp	.+18     	; 0x3e88 <vfprintf+0x28e>
    3e76:	34 fe       	sbrs	r3, 4
    3e78:	0a c0       	rjmp	.+20     	; 0x3e8e <vfprintf+0x294>
    3e7a:	29 2f       	mov	r18, r25
    3e7c:	26 60       	ori	r18, 0x06	; 6
    3e7e:	b2 2e       	mov	r11, r18
    3e80:	06 c0       	rjmp	.+12     	; 0x3e8e <vfprintf+0x294>
    3e82:	28 e0       	ldi	r18, 0x08	; 8
    3e84:	30 e0       	ldi	r19, 0x00	; 0
    3e86:	05 c0       	rjmp	.+10     	; 0x3e92 <vfprintf+0x298>
    3e88:	20 e1       	ldi	r18, 0x10	; 16
    3e8a:	30 e0       	ldi	r19, 0x00	; 0
    3e8c:	02 c0       	rjmp	.+4      	; 0x3e92 <vfprintf+0x298>
    3e8e:	20 e1       	ldi	r18, 0x10	; 16
    3e90:	32 e0       	ldi	r19, 0x02	; 2
    3e92:	f8 01       	movw	r30, r16
    3e94:	b7 fe       	sbrs	r11, 7
    3e96:	07 c0       	rjmp	.+14     	; 0x3ea6 <vfprintf+0x2ac>
    3e98:	60 81       	ld	r22, Z
    3e9a:	71 81       	ldd	r23, Z+1	; 0x01
    3e9c:	82 81       	ldd	r24, Z+2	; 0x02
    3e9e:	93 81       	ldd	r25, Z+3	; 0x03
    3ea0:	0c 5f       	subi	r16, 0xFC	; 252
    3ea2:	1f 4f       	sbci	r17, 0xFF	; 255
    3ea4:	06 c0       	rjmp	.+12     	; 0x3eb2 <vfprintf+0x2b8>
    3ea6:	60 81       	ld	r22, Z
    3ea8:	71 81       	ldd	r23, Z+1	; 0x01
    3eaa:	80 e0       	ldi	r24, 0x00	; 0
    3eac:	90 e0       	ldi	r25, 0x00	; 0
    3eae:	0e 5f       	subi	r16, 0xFE	; 254
    3eb0:	1f 4f       	sbci	r17, 0xFF	; 255
    3eb2:	a3 01       	movw	r20, r6
    3eb4:	01 d1       	rcall	.+514    	; 0x40b8 <__ultoa_invert>
    3eb6:	88 2e       	mov	r8, r24
    3eb8:	86 18       	sub	r8, r6
    3eba:	fb 2d       	mov	r31, r11
    3ebc:	ff 77       	andi	r31, 0x7F	; 127
    3ebe:	3f 2e       	mov	r3, r31
    3ec0:	36 fe       	sbrs	r3, 6
    3ec2:	0d c0       	rjmp	.+26     	; 0x3ede <vfprintf+0x2e4>
    3ec4:	23 2d       	mov	r18, r3
    3ec6:	2e 7f       	andi	r18, 0xFE	; 254
    3ec8:	a2 2e       	mov	r10, r18
    3eca:	89 14       	cp	r8, r9
    3ecc:	58 f4       	brcc	.+22     	; 0x3ee4 <vfprintf+0x2ea>
    3ece:	34 fe       	sbrs	r3, 4
    3ed0:	0b c0       	rjmp	.+22     	; 0x3ee8 <vfprintf+0x2ee>
    3ed2:	32 fc       	sbrc	r3, 2
    3ed4:	09 c0       	rjmp	.+18     	; 0x3ee8 <vfprintf+0x2ee>
    3ed6:	83 2d       	mov	r24, r3
    3ed8:	8e 7e       	andi	r24, 0xEE	; 238
    3eda:	a8 2e       	mov	r10, r24
    3edc:	05 c0       	rjmp	.+10     	; 0x3ee8 <vfprintf+0x2ee>
    3ede:	b8 2c       	mov	r11, r8
    3ee0:	a3 2c       	mov	r10, r3
    3ee2:	03 c0       	rjmp	.+6      	; 0x3eea <vfprintf+0x2f0>
    3ee4:	b8 2c       	mov	r11, r8
    3ee6:	01 c0       	rjmp	.+2      	; 0x3eea <vfprintf+0x2f0>
    3ee8:	b9 2c       	mov	r11, r9
    3eea:	a4 fe       	sbrs	r10, 4
    3eec:	0f c0       	rjmp	.+30     	; 0x3f0c <vfprintf+0x312>
    3eee:	fe 01       	movw	r30, r28
    3ef0:	e8 0d       	add	r30, r8
    3ef2:	f1 1d       	adc	r31, r1
    3ef4:	80 81       	ld	r24, Z
    3ef6:	80 33       	cpi	r24, 0x30	; 48
    3ef8:	21 f4       	brne	.+8      	; 0x3f02 <vfprintf+0x308>
    3efa:	9a 2d       	mov	r25, r10
    3efc:	99 7e       	andi	r25, 0xE9	; 233
    3efe:	a9 2e       	mov	r10, r25
    3f00:	09 c0       	rjmp	.+18     	; 0x3f14 <vfprintf+0x31a>
    3f02:	a2 fe       	sbrs	r10, 2
    3f04:	06 c0       	rjmp	.+12     	; 0x3f12 <vfprintf+0x318>
    3f06:	b3 94       	inc	r11
    3f08:	b3 94       	inc	r11
    3f0a:	04 c0       	rjmp	.+8      	; 0x3f14 <vfprintf+0x31a>
    3f0c:	8a 2d       	mov	r24, r10
    3f0e:	86 78       	andi	r24, 0x86	; 134
    3f10:	09 f0       	breq	.+2      	; 0x3f14 <vfprintf+0x31a>
    3f12:	b3 94       	inc	r11
    3f14:	a3 fc       	sbrc	r10, 3
    3f16:	10 c0       	rjmp	.+32     	; 0x3f38 <vfprintf+0x33e>
    3f18:	a0 fe       	sbrs	r10, 0
    3f1a:	06 c0       	rjmp	.+12     	; 0x3f28 <vfprintf+0x32e>
    3f1c:	b2 14       	cp	r11, r2
    3f1e:	80 f4       	brcc	.+32     	; 0x3f40 <vfprintf+0x346>
    3f20:	28 0c       	add	r2, r8
    3f22:	92 2c       	mov	r9, r2
    3f24:	9b 18       	sub	r9, r11
    3f26:	0d c0       	rjmp	.+26     	; 0x3f42 <vfprintf+0x348>
    3f28:	b2 14       	cp	r11, r2
    3f2a:	58 f4       	brcc	.+22     	; 0x3f42 <vfprintf+0x348>
    3f2c:	b6 01       	movw	r22, r12
    3f2e:	80 e2       	ldi	r24, 0x20	; 32
    3f30:	90 e0       	ldi	r25, 0x00	; 0
    3f32:	86 d0       	rcall	.+268    	; 0x4040 <fputc>
    3f34:	b3 94       	inc	r11
    3f36:	f8 cf       	rjmp	.-16     	; 0x3f28 <vfprintf+0x32e>
    3f38:	b2 14       	cp	r11, r2
    3f3a:	18 f4       	brcc	.+6      	; 0x3f42 <vfprintf+0x348>
    3f3c:	2b 18       	sub	r2, r11
    3f3e:	02 c0       	rjmp	.+4      	; 0x3f44 <vfprintf+0x34a>
    3f40:	98 2c       	mov	r9, r8
    3f42:	21 2c       	mov	r2, r1
    3f44:	a4 fe       	sbrs	r10, 4
    3f46:	0f c0       	rjmp	.+30     	; 0x3f66 <vfprintf+0x36c>
    3f48:	b6 01       	movw	r22, r12
    3f4a:	80 e3       	ldi	r24, 0x30	; 48
    3f4c:	90 e0       	ldi	r25, 0x00	; 0
    3f4e:	78 d0       	rcall	.+240    	; 0x4040 <fputc>
    3f50:	a2 fe       	sbrs	r10, 2
    3f52:	16 c0       	rjmp	.+44     	; 0x3f80 <vfprintf+0x386>
    3f54:	a1 fc       	sbrc	r10, 1
    3f56:	03 c0       	rjmp	.+6      	; 0x3f5e <vfprintf+0x364>
    3f58:	88 e7       	ldi	r24, 0x78	; 120
    3f5a:	90 e0       	ldi	r25, 0x00	; 0
    3f5c:	02 c0       	rjmp	.+4      	; 0x3f62 <vfprintf+0x368>
    3f5e:	88 e5       	ldi	r24, 0x58	; 88
    3f60:	90 e0       	ldi	r25, 0x00	; 0
    3f62:	b6 01       	movw	r22, r12
    3f64:	0c c0       	rjmp	.+24     	; 0x3f7e <vfprintf+0x384>
    3f66:	8a 2d       	mov	r24, r10
    3f68:	86 78       	andi	r24, 0x86	; 134
    3f6a:	51 f0       	breq	.+20     	; 0x3f80 <vfprintf+0x386>
    3f6c:	a1 fe       	sbrs	r10, 1
    3f6e:	02 c0       	rjmp	.+4      	; 0x3f74 <vfprintf+0x37a>
    3f70:	8b e2       	ldi	r24, 0x2B	; 43
    3f72:	01 c0       	rjmp	.+2      	; 0x3f76 <vfprintf+0x37c>
    3f74:	80 e2       	ldi	r24, 0x20	; 32
    3f76:	a7 fc       	sbrc	r10, 7
    3f78:	8d e2       	ldi	r24, 0x2D	; 45
    3f7a:	b6 01       	movw	r22, r12
    3f7c:	90 e0       	ldi	r25, 0x00	; 0
    3f7e:	60 d0       	rcall	.+192    	; 0x4040 <fputc>
    3f80:	89 14       	cp	r8, r9
    3f82:	30 f4       	brcc	.+12     	; 0x3f90 <vfprintf+0x396>
    3f84:	b6 01       	movw	r22, r12
    3f86:	80 e3       	ldi	r24, 0x30	; 48
    3f88:	90 e0       	ldi	r25, 0x00	; 0
    3f8a:	5a d0       	rcall	.+180    	; 0x4040 <fputc>
    3f8c:	9a 94       	dec	r9
    3f8e:	f8 cf       	rjmp	.-16     	; 0x3f80 <vfprintf+0x386>
    3f90:	8a 94       	dec	r8
    3f92:	f3 01       	movw	r30, r6
    3f94:	e8 0d       	add	r30, r8
    3f96:	f1 1d       	adc	r31, r1
    3f98:	80 81       	ld	r24, Z
    3f9a:	b6 01       	movw	r22, r12
    3f9c:	90 e0       	ldi	r25, 0x00	; 0
    3f9e:	50 d0       	rcall	.+160    	; 0x4040 <fputc>
    3fa0:	81 10       	cpse	r8, r1
    3fa2:	f6 cf       	rjmp	.-20     	; 0x3f90 <vfprintf+0x396>
    3fa4:	22 20       	and	r2, r2
    3fa6:	09 f4       	brne	.+2      	; 0x3faa <vfprintf+0x3b0>
    3fa8:	4e ce       	rjmp	.-868    	; 0x3c46 <vfprintf+0x4c>
    3faa:	b6 01       	movw	r22, r12
    3fac:	80 e2       	ldi	r24, 0x20	; 32
    3fae:	90 e0       	ldi	r25, 0x00	; 0
    3fb0:	47 d0       	rcall	.+142    	; 0x4040 <fputc>
    3fb2:	2a 94       	dec	r2
    3fb4:	f7 cf       	rjmp	.-18     	; 0x3fa4 <vfprintf+0x3aa>
    3fb6:	f6 01       	movw	r30, r12
    3fb8:	86 81       	ldd	r24, Z+6	; 0x06
    3fba:	97 81       	ldd	r25, Z+7	; 0x07
    3fbc:	02 c0       	rjmp	.+4      	; 0x3fc2 <vfprintf+0x3c8>
    3fbe:	8f ef       	ldi	r24, 0xFF	; 255
    3fc0:	9f ef       	ldi	r25, 0xFF	; 255
    3fc2:	2b 96       	adiw	r28, 0x0b	; 11
    3fc4:	0f b6       	in	r0, 0x3f	; 63
    3fc6:	f8 94       	cli
    3fc8:	de bf       	out	0x3e, r29	; 62
    3fca:	0f be       	out	0x3f, r0	; 63
    3fcc:	cd bf       	out	0x3d, r28	; 61
    3fce:	df 91       	pop	r29
    3fd0:	cf 91       	pop	r28
    3fd2:	1f 91       	pop	r17
    3fd4:	0f 91       	pop	r16
    3fd6:	ff 90       	pop	r15
    3fd8:	ef 90       	pop	r14
    3fda:	df 90       	pop	r13
    3fdc:	cf 90       	pop	r12
    3fde:	bf 90       	pop	r11
    3fe0:	af 90       	pop	r10
    3fe2:	9f 90       	pop	r9
    3fe4:	8f 90       	pop	r8
    3fe6:	7f 90       	pop	r7
    3fe8:	6f 90       	pop	r6
    3fea:	5f 90       	pop	r5
    3fec:	4f 90       	pop	r4
    3fee:	3f 90       	pop	r3
    3ff0:	2f 90       	pop	r2
    3ff2:	08 95       	ret

00003ff4 <strnlen_P>:
    3ff4:	fc 01       	movw	r30, r24
    3ff6:	05 90       	lpm	r0, Z+
    3ff8:	61 50       	subi	r22, 0x01	; 1
    3ffa:	70 40       	sbci	r23, 0x00	; 0
    3ffc:	01 10       	cpse	r0, r1
    3ffe:	d8 f7       	brcc	.-10     	; 0x3ff6 <strnlen_P+0x2>
    4000:	80 95       	com	r24
    4002:	90 95       	com	r25
    4004:	8e 0f       	add	r24, r30
    4006:	9f 1f       	adc	r25, r31
    4008:	08 95       	ret

0000400a <strnlen>:
    400a:	fc 01       	movw	r30, r24
    400c:	61 50       	subi	r22, 0x01	; 1
    400e:	70 40       	sbci	r23, 0x00	; 0
    4010:	01 90       	ld	r0, Z+
    4012:	01 10       	cpse	r0, r1
    4014:	d8 f7       	brcc	.-10     	; 0x400c <strnlen+0x2>
    4016:	80 95       	com	r24
    4018:	90 95       	com	r25
    401a:	8e 0f       	add	r24, r30
    401c:	9f 1f       	adc	r25, r31
    401e:	08 95       	ret

00004020 <strrev>:
    4020:	dc 01       	movw	r26, r24
    4022:	fc 01       	movw	r30, r24
    4024:	67 2f       	mov	r22, r23
    4026:	71 91       	ld	r23, Z+
    4028:	77 23       	and	r23, r23
    402a:	e1 f7       	brne	.-8      	; 0x4024 <strrev+0x4>
    402c:	32 97       	sbiw	r30, 0x02	; 2
    402e:	04 c0       	rjmp	.+8      	; 0x4038 <strrev+0x18>
    4030:	7c 91       	ld	r23, X
    4032:	6d 93       	st	X+, r22
    4034:	70 83       	st	Z, r23
    4036:	62 91       	ld	r22, -Z
    4038:	ae 17       	cp	r26, r30
    403a:	bf 07       	cpc	r27, r31
    403c:	c8 f3       	brcs	.-14     	; 0x4030 <strrev+0x10>
    403e:	08 95       	ret

00004040 <fputc>:
    4040:	0f 93       	push	r16
    4042:	1f 93       	push	r17
    4044:	cf 93       	push	r28
    4046:	df 93       	push	r29
    4048:	fb 01       	movw	r30, r22
    404a:	23 81       	ldd	r18, Z+3	; 0x03
    404c:	21 fd       	sbrc	r18, 1
    404e:	03 c0       	rjmp	.+6      	; 0x4056 <fputc+0x16>
    4050:	8f ef       	ldi	r24, 0xFF	; 255
    4052:	9f ef       	ldi	r25, 0xFF	; 255
    4054:	2c c0       	rjmp	.+88     	; 0x40ae <fputc+0x6e>
    4056:	22 ff       	sbrs	r18, 2
    4058:	16 c0       	rjmp	.+44     	; 0x4086 <fputc+0x46>
    405a:	46 81       	ldd	r20, Z+6	; 0x06
    405c:	57 81       	ldd	r21, Z+7	; 0x07
    405e:	24 81       	ldd	r18, Z+4	; 0x04
    4060:	35 81       	ldd	r19, Z+5	; 0x05
    4062:	42 17       	cp	r20, r18
    4064:	53 07       	cpc	r21, r19
    4066:	44 f4       	brge	.+16     	; 0x4078 <fputc+0x38>
    4068:	a0 81       	ld	r26, Z
    406a:	b1 81       	ldd	r27, Z+1	; 0x01
    406c:	9d 01       	movw	r18, r26
    406e:	2f 5f       	subi	r18, 0xFF	; 255
    4070:	3f 4f       	sbci	r19, 0xFF	; 255
    4072:	31 83       	std	Z+1, r19	; 0x01
    4074:	20 83       	st	Z, r18
    4076:	8c 93       	st	X, r24
    4078:	26 81       	ldd	r18, Z+6	; 0x06
    407a:	37 81       	ldd	r19, Z+7	; 0x07
    407c:	2f 5f       	subi	r18, 0xFF	; 255
    407e:	3f 4f       	sbci	r19, 0xFF	; 255
    4080:	37 83       	std	Z+7, r19	; 0x07
    4082:	26 83       	std	Z+6, r18	; 0x06
    4084:	14 c0       	rjmp	.+40     	; 0x40ae <fputc+0x6e>
    4086:	8b 01       	movw	r16, r22
    4088:	ec 01       	movw	r28, r24
    408a:	fb 01       	movw	r30, r22
    408c:	00 84       	ldd	r0, Z+8	; 0x08
    408e:	f1 85       	ldd	r31, Z+9	; 0x09
    4090:	e0 2d       	mov	r30, r0
    4092:	19 95       	eicall
    4094:	89 2b       	or	r24, r25
    4096:	e1 f6       	brne	.-72     	; 0x4050 <fputc+0x10>
    4098:	d8 01       	movw	r26, r16
    409a:	16 96       	adiw	r26, 0x06	; 6
    409c:	8d 91       	ld	r24, X+
    409e:	9c 91       	ld	r25, X
    40a0:	17 97       	sbiw	r26, 0x07	; 7
    40a2:	01 96       	adiw	r24, 0x01	; 1
    40a4:	17 96       	adiw	r26, 0x07	; 7
    40a6:	9c 93       	st	X, r25
    40a8:	8e 93       	st	-X, r24
    40aa:	16 97       	sbiw	r26, 0x06	; 6
    40ac:	ce 01       	movw	r24, r28
    40ae:	df 91       	pop	r29
    40b0:	cf 91       	pop	r28
    40b2:	1f 91       	pop	r17
    40b4:	0f 91       	pop	r16
    40b6:	08 95       	ret

000040b8 <__ultoa_invert>:
    40b8:	fa 01       	movw	r30, r20
    40ba:	aa 27       	eor	r26, r26
    40bc:	28 30       	cpi	r18, 0x08	; 8
    40be:	51 f1       	breq	.+84     	; 0x4114 <__ultoa_invert+0x5c>
    40c0:	20 31       	cpi	r18, 0x10	; 16
    40c2:	81 f1       	breq	.+96     	; 0x4124 <__ultoa_invert+0x6c>
    40c4:	e8 94       	clt
    40c6:	6f 93       	push	r22
    40c8:	6e 7f       	andi	r22, 0xFE	; 254
    40ca:	6e 5f       	subi	r22, 0xFE	; 254
    40cc:	7f 4f       	sbci	r23, 0xFF	; 255
    40ce:	8f 4f       	sbci	r24, 0xFF	; 255
    40d0:	9f 4f       	sbci	r25, 0xFF	; 255
    40d2:	af 4f       	sbci	r26, 0xFF	; 255
    40d4:	b1 e0       	ldi	r27, 0x01	; 1
    40d6:	3e d0       	rcall	.+124    	; 0x4154 <__ultoa_invert+0x9c>
    40d8:	b4 e0       	ldi	r27, 0x04	; 4
    40da:	3c d0       	rcall	.+120    	; 0x4154 <__ultoa_invert+0x9c>
    40dc:	67 0f       	add	r22, r23
    40de:	78 1f       	adc	r23, r24
    40e0:	89 1f       	adc	r24, r25
    40e2:	9a 1f       	adc	r25, r26
    40e4:	a1 1d       	adc	r26, r1
    40e6:	68 0f       	add	r22, r24
    40e8:	79 1f       	adc	r23, r25
    40ea:	8a 1f       	adc	r24, r26
    40ec:	91 1d       	adc	r25, r1
    40ee:	a1 1d       	adc	r26, r1
    40f0:	6a 0f       	add	r22, r26
    40f2:	71 1d       	adc	r23, r1
    40f4:	81 1d       	adc	r24, r1
    40f6:	91 1d       	adc	r25, r1
    40f8:	a1 1d       	adc	r26, r1
    40fa:	20 d0       	rcall	.+64     	; 0x413c <__ultoa_invert+0x84>
    40fc:	09 f4       	brne	.+2      	; 0x4100 <__ultoa_invert+0x48>
    40fe:	68 94       	set
    4100:	3f 91       	pop	r19
    4102:	2a e0       	ldi	r18, 0x0A	; 10
    4104:	26 9f       	mul	r18, r22
    4106:	11 24       	eor	r1, r1
    4108:	30 19       	sub	r19, r0
    410a:	30 5d       	subi	r19, 0xD0	; 208
    410c:	31 93       	st	Z+, r19
    410e:	de f6       	brtc	.-74     	; 0x40c6 <__ultoa_invert+0xe>
    4110:	cf 01       	movw	r24, r30
    4112:	08 95       	ret
    4114:	46 2f       	mov	r20, r22
    4116:	47 70       	andi	r20, 0x07	; 7
    4118:	40 5d       	subi	r20, 0xD0	; 208
    411a:	41 93       	st	Z+, r20
    411c:	b3 e0       	ldi	r27, 0x03	; 3
    411e:	0f d0       	rcall	.+30     	; 0x413e <__ultoa_invert+0x86>
    4120:	c9 f7       	brne	.-14     	; 0x4114 <__ultoa_invert+0x5c>
    4122:	f6 cf       	rjmp	.-20     	; 0x4110 <__ultoa_invert+0x58>
    4124:	46 2f       	mov	r20, r22
    4126:	4f 70       	andi	r20, 0x0F	; 15
    4128:	40 5d       	subi	r20, 0xD0	; 208
    412a:	4a 33       	cpi	r20, 0x3A	; 58
    412c:	18 f0       	brcs	.+6      	; 0x4134 <__ultoa_invert+0x7c>
    412e:	49 5d       	subi	r20, 0xD9	; 217
    4130:	31 fd       	sbrc	r19, 1
    4132:	40 52       	subi	r20, 0x20	; 32
    4134:	41 93       	st	Z+, r20
    4136:	02 d0       	rcall	.+4      	; 0x413c <__ultoa_invert+0x84>
    4138:	a9 f7       	brne	.-22     	; 0x4124 <__ultoa_invert+0x6c>
    413a:	ea cf       	rjmp	.-44     	; 0x4110 <__ultoa_invert+0x58>
    413c:	b4 e0       	ldi	r27, 0x04	; 4
    413e:	a6 95       	lsr	r26
    4140:	97 95       	ror	r25
    4142:	87 95       	ror	r24
    4144:	77 95       	ror	r23
    4146:	67 95       	ror	r22
    4148:	ba 95       	dec	r27
    414a:	c9 f7       	brne	.-14     	; 0x413e <__ultoa_invert+0x86>
    414c:	00 97       	sbiw	r24, 0x00	; 0
    414e:	61 05       	cpc	r22, r1
    4150:	71 05       	cpc	r23, r1
    4152:	08 95       	ret
    4154:	9b 01       	movw	r18, r22
    4156:	ac 01       	movw	r20, r24
    4158:	0a 2e       	mov	r0, r26
    415a:	06 94       	lsr	r0
    415c:	57 95       	ror	r21
    415e:	47 95       	ror	r20
    4160:	37 95       	ror	r19
    4162:	27 95       	ror	r18
    4164:	ba 95       	dec	r27
    4166:	c9 f7       	brne	.-14     	; 0x415a <__ultoa_invert+0xa2>
    4168:	62 0f       	add	r22, r18
    416a:	73 1f       	adc	r23, r19
    416c:	84 1f       	adc	r24, r20
    416e:	95 1f       	adc	r25, r21
    4170:	a0 1d       	adc	r26, r0
    4172:	08 95       	ret

00004174 <_exit>:
    4174:	f8 94       	cli

00004176 <__stop_program>:
    4176:	ff cf       	rjmp	.-2      	; 0x4176 <__stop_program>
